(dp0
cnumpy.core.multiarray
scalar
p1
(cnumpy
dtype
p2
(S'U3'
p3
I0
I1
tp4
Rp5
(I3
S'<'
p6
NNNI12
I4
I8
tp7
bS'sS\x00\x00\xe5e\x00\x00w\x8d\x00\x00'
p8
tp9
Rp10
I01
sg1
(g2
(S'U2'
p11
I0
I1
tp12
Rp13
(I3
S'<'
p14
NNNI8
I4
I8
tp15
bS';`\x00\x00\xf7N\x00\x00'
p16
tp17
Rp18
I01
sg1
(g2
(S'U2'
p19
I0
I1
tp20
Rp21
(I3
S'<'
p22
NNNI8
I4
I8
tp23
bS's^\x00\x00\x89[\x00\x00'
p24
tp25
Rp26
I01
sg1
(g2
(S'U4'
p27
I0
I1
tp28
Rp29
(I3
S'<'
p30
NNNI16
I4
I8
tp31
bS'pN\x00\x00\x00N\x00\x00\x01\x90\x00\x00\x00N\x00\x00'
p32
tp33
Rp34
I01
sg1
(g2
(S'U2'
p35
I0
I1
tp36
Rp37
(I3
S'<'
p38
NNNI8
I4
I8
tp39
bS'\xa8T\x00\x00\xe2\x8b\x00\x00'
p40
tp41
Rp42
I01
sg1
(g2
(S'U2'
p43
I0
I1
tp44
Rp45
(I3
S'<'
p46
NNNI8
I4
I8
tp47
bS'\x07N\x00\x00w\x8d\x00\x00'
p48
tp49
Rp50
I01
sg1
(g2
(S'U1'
p51
I0
I1
tp52
Rp53
(I3
S'<'
p54
NNNI4
I4
I8
tp55
bS' \x00\x00\x00'
p56
tp57
Rp58
I01
sg1
(g2
(S'U2'
p59
I0
I1
tp60
Rp61
(I3
S'<'
p62
NNNI8
I4
I8
tp63
bS'`\x8d\x00\x00\x01\x90\x00\x00'
p64
tp65
Rp66
I01
sg1
(g2
(S'U2'
p67
I0
I1
tp68
Rp69
(I3
S'<'
p70
NNNI8
I4
I8
tp71
bS'le\x00\x00\xf7\x8b\x00\x00'
p72
tp73
Rp74
I01
sg1
(g2
(S'U3'
p75
I0
I1
tp76
Rp77
(I3
S'<'
p78
NNNI12
I4
I8
tp79
bS'\x00N\x00\x00\xf9[\x00\x00\x00N\x00\x00'
p80
tp81
Rp82
I01
sg1
(g2
(S'U2'
p83
I0
I1
tp84
Rp85
(I3
S'<'
p86
NNNI8
I4
I8
tp87
bS'\xd1S\x00\x00\x1fu\x00\x00'
p88
tp89
Rp90
I01
sg1
(g2
(S'U2'
p91
I0
I1
tp92
Rp93
(I3
S'<'
p94
NNNI8
I4
I8
tp95
bS'\x06R\x00\x00\xabN\x00\x00'
p96
tp97
Rp98
I01
sg1
(g2
(S'U2'
p99
I0
I1
tp100
Rp101
(I3
S'<'
p102
NNNI8
I4
I8
tp103
bS'\xca`\x00\x00\x9cU\x00\x00'
p104
tp105
Rp106
I01
sg1
(g2
(S'U4'
p107
I0
I1
tp108
Rp109
(I3
S'<'
p110
NNNI16
I4
I8
tp111
bS'\xb0e\x00\x00t^\x00\x00\xeb_\x00\x00PN\x00\x00'
p112
tp113
Rp114
I01
sg1
(g2
(S'U8'
p115
I0
I1
tp116
Rp117
(I3
S'<'
p118
NNNI32
I4
I8
tp119
bS'x\x00\x00\x00x\x00\x00\x00x\x00\x00\x00x\x00\x00\x00x\x00\x00\x00x\x00\x00\x00x\x00\x00\x00x\x00\x00\x00'
p120
tp121
Rp122
I01
sg1
(g2
(S'U2'
p123
I0
I1
tp124
Rp125
(I3
S'<'
p126
NNNI8
I4
I8
tp127
bS'\xc1T\x00\x00Lr\x00\x00'
p128
tp129
Rp130
I01
sg1
(g2
(S'U3'
p131
I0
I1
tp132
Rp133
(I3
S'<'
p134
NNNI12
I4
I8
tp135
bS'\x01\x80\x00\x00\xa2[\x00\x007b\x00\x00'
p136
tp137
Rp138
I01
sg1
(g2
(S'U2'
p139
I0
I1
tp140
Rp141
(I3
S'<'
p142
NNNI8
I4
I8
tp143
bS'm`\x00\x00]y\x00\x00'
p144
tp145
Rp146
I01
sg1
(g2
(S'U2'
p147
I0
I1
tp148
Rp149
(I3
S'<'
p150
NNNI8
I4
I8
tp151
bS'~\x98\x00\x00\xa2[\x00\x00'
p152
tp153
Rp154
I01
sg1
(g2
(S'U2'
p155
I0
I1
tp156
Rp157
(I3
S'<'
p158
NNNI8
I4
I8
tp159
bS'\xe5e\x00\x000R\x00\x00'
p160
tp161
Rp162
I01
sg1
(g2
(S'U2'
p163
I0
I1
tp164
Rp165
(I3
S'<'
p166
NNNI8
I4
I8
tp167
bS'\xccS\x00\x00\rP\x00\x00'
p168
tp169
Rp170
I01
sg1
(g2
(S'U1'
p171
I0
I1
tp172
Rp173
(I3
S'<'
p174
NNNI4
I4
I8
tp175
bS'\xeds\x00\x00'
p176
tp177
Rp178
I01
sg1
(g2
(S'U2'
p179
I0
I1
tp180
Rp181
(I3
S'<'
p182
NNNI8
I4
I8
tp183
bS'sQ\x00\x00\xe8l\x00\x00'
p184
tp185
Rp186
I01
sg1
(g2
(S'U2'
p187
I0
I1
tp188
Rp189
(I3
S'<'
p190
NNNI8
I4
I8
tp191
bS'\xc1T\x00\x00t\x92\x00\x00'
p192
tp193
Rp194
I01
sg1
(g2
(S'U2'
p195
I0
I1
tp196
Rp197
(I3
S'<'
p198
NNNI8
I4
I8
tp199
bS'\xc5\x88\x00\x00p\x99\x00\x00'
p200
tp201
Rp202
I01
sg1
(g2
(S'U1'
p203
I0
I1
tp204
Rp205
(I3
S'<'
p206
NNNI4
I4
I8
tp207
bS'\x03T\x00\x00'
p208
tp209
Rp210
I01
sg1
(g2
(S'U2'
p211
I0
I1
tp212
Rp213
(I3
S'<'
p214
NNNI8
I4
I8
tp215
bS'\xacQ\x00\x00\xc5\x88\x00\x00'
p216
tp217
Rp218
I01
sg1
(g2
(S'U2'
p219
I0
I1
tp220
Rp221
(I3
S'<'
p222
NNNI8
I4
I8
tp223
bS'\xabN\x00\x00\xd7S\x00\x00'
p224
tp225
Rp226
I01
sg1
(g2
(S'U2'
p227
I0
I1
tp228
Rp229
(I3
S'<'
p230
NNNI8
I4
I8
tp231
bS'sO\x00\x00\x82\x82\x00\x00'
p232
tp233
Rp234
I01
sg1
(g2
(S'U2'
p235
I0
I1
tp236
Rp237
(I3
S'<'
p238
NNNI8
I4
I8
tp239
bS'P\x9f\x00\x00hQ\x00\x00'
p240
tp241
Rp242
I01
sg1
(g2
(S'U2'
p243
I0
I1
tp244
Rp245
(I3
S'<'
p246
NNNI8
I4
I8
tp247
bS'MQ\x00\x009\x8d\x00\x00'
p248
tp249
Rp250
I01
sg1
(g2
(S'U3'
p251
I0
I1
tp252
Rp253
(I3
S'<'
p254
NNNI12
I4
I8
tp255
bS'\x00g\x00\x00NO\x00\x00\xf7N\x00\x00'
p256
tp257
Rp258
I01
sg1
(g2
(S'U2'
p259
I0
I1
tp260
Rp261
(I3
S'<'
p262
NNNI8
I4
I8
tp263
bS'NO\x00\x00\xf7N\x00\x00'
p264
tp265
Rp266
I01
sg1
(g2
(S'U2'
p267
I0
I1
tp268
Rp269
(I3
S'<'
p270
NNNI8
I4
I8
tp271
bS'\x1fw\x00\x00\x84v\x00\x00'
p272
tp273
Rp274
I01
sg1
(g2
(S'U2'
p275
I0
I1
tp276
Rp277
(I3
S'<'
p278
NNNI8
I4
I8
tp279
bS'\x85\x8f\x00\x00\xfc[\x00\x00'
p280
tp281
Rp282
I01
sg1
(g2
(S'U3'
p283
I0
I1
tp284
Rp285
(I3
S'<'
p286
NNNI12
I4
I8
tp287
bS'CQ\x00\x00\xb5[\x00\x00\x82\x82\x00\x00'
p288
tp289
Rp290
I01
sg1
(g2
(S'U2'
p291
I0
I1
tp292
Rp293
(I3
S'<'
p294
NNNI8
I4
I8
tp295
bS'-N\x00\x00\xfdV\x00\x00'
p296
tp297
Rp298
I01
sg1
(g2
(S'U2'
p299
I0
I1
tp300
Rp301
(I3
S'<'
p302
NNNI8
I4
I8
tp303
bS'\x11b\x00\x00L\x88\x00\x00'
p304
tp305
Rp306
I01
sg1
(g2
(S'U4'
p307
I0
I1
tp308
Rp309
(I3
S'<'
p310
NNNI16
I4
I8
tp311
bS'\x07N\x00\x00\x8bN\x00\x00\x82Y\x00\x00\x0fa\x00\x00'
p312
tp313
Rp314
I01
sg1
(g2
(S'U1'
p315
I0
I1
tp316
Rp317
(I3
S'<'
p318
NNNI4
I4
I8
tp319
bS'\xf7S\x00\x00'
p320
tp321
Rp322
I01
sg1
(g2
(S'U2'
p323
I0
I1
tp324
Rp325
(I3
S'<'
p326
NNNI8
I4
I8
tp327
bS'yr\x00\x00\xe0`\x00\x00'
p328
tp329
Rp330
I01
sg1
(g2
(S'U2'
p331
I0
I1
tp332
Rp333
(I3
S'<'
p334
NNNI8
I4
I8
tp335
bS'n\x7f\x00\x00\x1aN\x00\x00'
p336
tp337
Rp338
I01
sg1
(g2
(S'U2'
p339
I0
I1
tp340
Rp341
(I3
S'<'
p342
NNNI8
I4
I8
tp343
bS'\xb6[\x00\x00wQ\x00\x00'
p344
tp345
Rp346
I01
sg1
(g2
(S'U2'
p347
I0
I1
tp348
Rp349
(I3
S'<'
p350
NNNI8
I4
I8
tp351
bS'eg\x00\x005u\x00\x00'
p352
tp353
Rp354
I01
sg1
(g2
(S'U2'
p355
I0
I1
tp356
Rp357
(I3
S'<'
p358
NNNI8
I4
I8
tp359
bS'T{\x00\x00"\x8c\x00\x00'
p360
tp361
Rp362
I01
sg1
(g2
(S'U2'
p363
I0
I1
tp364
Rp365
(I3
S'<'
p366
NNNI8
I4
I8
tp367
bS"~v\x00\x00'\x8d\x00\x00"
p368
tp369
Rp370
I01
sg1
(g2
(S'U1'
p371
I0
I1
tp372
Rp373
(I3
S'<'
p374
NNNI4
I4
I8
tp375
bS'\xe0`\x00\x00'
p376
tp377
Rp378
I01
sg1
(g2
(S'U1'
p379
I0
I1
tp380
Rp381
(I3
S'<'
p382
NNNI4
I4
I8
tp383
bS'\xe2\x8b\x00\x00'
p384
tp385
Rp386
I01
sg1
(g2
(S'U5'
p387
I0
I1
tp388
Rp389
(I3
S'<'
p390
NNNI20
I4
I8
tp391
bS'\tN\x00\x00kQ\x00\x00\x87Y\x00\x00sY\x00\x00\x82\x82\x00\x00'
p392
tp393
Rp394
I01
sg1
(g2
(S'U2'
p395
I0
I1
tp396
Rp397
(I3
S'<'
p398
NNNI8
I4
I8
tp399
bS'\xae_\x00\x00o\x8f\x00\x00'
p400
tp401
Rp402
I01
sg1
(g2
(S'U2'
p403
I0
I1
tp404
Rp405
(I3
S'<'
p406
NNNI8
I4
I8
tp407
bS'%f\x00\x00\xc5\x88\x00\x00'
p408
tp409
Rp410
I01
sg1
(g2
(S'U2'
p411
I0
I1
tp412
Rp413
(I3
S'<'
p414
NNNI8
I4
I8
tp415
bS'\xd0c\x00\x00\x9bO\x00\x00'
p416
tp417
Rp418
I01
sg1
(g2
(S'U2'
p419
I0
I1
tp420
Rp421
(I3
S'<'
p422
NNNI8
I4
I8
tp423
bS'(\x8d\x00\x00\x91u\x00\x00'
p424
tp425
Rp426
I01
sg1
(g2
(S'U2'
p427
I0
I1
tp428
Rp429
(I3
S'<'
p430
NNNI8
I4
I8
tp431
bS'0W\x00\x00@W\x00\x00'
p432
tp433
Rp434
I01
sg1
(g2
(S'U3'
p435
I0
I1
tp436
Rp437
(I3
S'<'
p438
NNNI12
I4
I8
tp439
bS'\x87Y\x00\x00sY\x00\x00\x82\x82\x00\x00'
p440
tp441
Rp442
I01
sg1
(g2
(S'U2'
p443
I0
I1
tp444
Rp445
(I3
S'<'
p446
NNNI8
I4
I8
tp447
bS'\xa7N\x00\x00\xc1T\x00\x00'
p448
tp449
Rp450
I01
sg1
(g2
(S'U2'
p451
I0
I1
tp452
Rp453
(I3
S'<'
p454
NNNI8
I4
I8
tp455
bS'\xe1n\x00\x00\x9d\x98\x00\x00'
p456
tp457
Rp458
I01
sg1
(g2
(S'U2'
p459
I0
I1
tp460
Rp461
(I3
S'<'
p462
NNNI8
I4
I8
tp463
bS'\xa8c\x00\x00\xfaQ\x00\x00'
p464
tp465
Rp466
I01
sg1
(g2
(S'U1'
p467
I0
I1
tp468
Rp469
(I3
S'<'
p470
NNNI4
I4
I8
tp471
bS'\x01\x90\x00\x00'
p472
tp473
Rp474
I01
sg1
(g2
(S'U2'
p475
I0
I1
tp476
Rp477
(I3
S'<'
p478
NNNI8
I4
I8
tp479
bS"yr\x00\x00'Y\x00\x00"
p480
tp481
Rp482
I01
sg1
(g2
(S'U2'
p483
I0
I1
tp484
Rp485
(I3
S'<'
p486
NNNI8
I4
I8
tp487
bS'\x8e\x7f\x00\x00=N\x00\x00'
p488
tp489
Rp490
I01
sg1
(g2
(S'U2'
p491
I0
I1
tp492
Rp493
(I3
S'<'
p494
NNNI8
I4
I8
tp495
bS'\x0f\\\x00\x00wP\x00\x00'
p496
tp497
Rp498
I01
sg1
(g2
(S'U2'
p499
I0
I1
tp500
Rp501
(I3
S'<'
p502
NNNI8
I4
I8
tp503
bS'\xf7N\x00\x00<P\x00\x00'
p504
tp505
Rp506
I01
sg1
(g2
(S'U2'
p507
I0
I1
tp508
Rp509
(I3
S'<'
p510
NNNI8
I4
I8
tp511
bS'm`\x00\x00\x19P\x00\x00'
p512
tp513
Rp514
I01
sg1
(g2
(S'U2'
p515
I0
I1
tp516
Rp517
(I3
S'<'
p518
NNNI8
I4
I8
tp519
bS'\x05n\x00\x00\xd3N\x00\x00'
p520
tp521
Rp522
I01
sg1
(g2
(S'U2'
p523
I0
I1
tp524
Rp525
(I3
S'<'
p526
NNNI8
I4
I8
tp527
bS'\xf0X\x00\x00\xf3\x97\x00\x00'
p528
tp529
Rp530
I01
sg1
(g2
(S'U2'
p531
I0
I1
tp532
Rp533
(I3
S'<'
p534
NNNI8
I4
I8
tp535
bS'5u\x00\x00hV\x00\x00'
p536
tp537
Rp538
I01
sg1
(g2
(S'U2'
p539
I0
I1
tp540
Rp541
(I3
S'<'
p542
NNNI8
I4
I8
tp543
bS'\n\\\x00\x00\xabN\x00\x00'
p544
tp545
Rp546
I01
sg1
(g2
(S'U2'
p547
I0
I1
tp548
Rp549
(I3
S'<'
p550
NNNI8
I4
I8
tp551
bS'\xe6S\x00\x00\tg\x00\x00'
p552
tp553
Rp554
I01
sg1
(g2
(S'U2'
p555
I0
I1
tp556
Rp557
(I3
S'<'
p558
NNNI8
I4
I8
tp559
bS'\xedp\x00\x00\xbf~\x00\x00'
p560
tp561
Rp562
I01
sg1
(g2
(S'U2'
p563
I0
I1
tp564
Rp565
(I3
S'<'
p566
NNNI8
I4
I8
tp567
bS'\xfbN\x00\x00\x0fa\x00\x00'
p568
tp569
Rp570
I01
sg1
(g2
(S'U2'
p571
I0
I1
tp572
Rp573
(I3
S'<'
p574
NNNI8
I4
I8
tp575
bS'\xeb_\x00\x00PN\x00\x00'
p576
tp577
Rp578
I01
sg1
(g2
(S'U2'
p579
I0
I1
tp580
Rp581
(I3
S'<'
p582
NNNI8
I4
I8
tp583
bS'\xc5N\x00\x00P\x96\x00\x00'
p584
tp585
Rp586
I01
sg1
(g2
(S'U2'
p587
I0
I1
tp588
Rp589
(I3
S'<'
p590
NNNI8
I4
I8
tp591
bS'ck\x00\x00\x08g\x00\x00'
p592
tp593
Rp594
I01
sg1
(g2
(S'U2'
p595
I0
I1
tp596
Rp597
(I3
S'<'
p598
NNNI8
I4
I8
tp599
bS'\xb6[\x00\x00\xc5\x88\x00\x00'
p600
tp601
Rp602
I01
sg1
(g2
(S'U2'
p603
I0
I1
tp604
Rp605
(I3
S'<'
p606
NNNI8
I4
I8
tp607
bS';S\x00\x00b\x96\x00\x00'
p608
tp609
Rp610
I01
sg1
(g2
(S'U2'
p611
I0
I1
tp612
Rp613
(I3
S'<'
p614
NNNI8
I4
I8
tp615
bS'\x85\x8d\x00\x00<P\x00\x00'
p616
tp617
Rp618
I01
sg1
(g2
(S'U2'
p619
I0
I1
tp620
Rp621
(I3
S'<'
p622
NNNI8
I4
I8
tp623
bS'sS\x00\x00\xefS\x00\x00'
p624
tp625
Rp626
I01
sg1
(g2
(S'U1'
p627
I0
I1
tp628
Rp629
(I3
S'<'
p630
NNNI4
I4
I8
tp631
bS'\xf7\x8b\x00\x00'
p632
tp633
Rp634
I01
sg1
(g2
(S'U2'
p635
I0
I1
tp636
Rp637
(I3
S'<'
p638
NNNI8
I4
I8
tp639
bS']y\x00\x00\xa8`\x00\x00'
p640
tp641
Rp642
I01
sg1
(g2
(S'U2'
p643
I0
I1
tp644
Rp645
(I3
S'<'
p646
NNNI8
I4
I8
tp647
bS'j\x8c\x00\x00<y\x00\x00'
p648
tp649
Rp650
I01
sg1
(g2
(S'U2'
p651
I0
I1
tp652
Rp653
(I3
S'<'
p654
NNNI8
I4
I8
tp655
bS'\x97^\x00\x00\x85Q\x00\x00'
p656
tp657
Rp658
I01
sg1
(g2
(S'U1'
p659
I0
I1
tp660
Rp661
(I3
S'<'
p662
NNNI4
I4
I8
tp663
bS'\x82\x82\x00\x00'
p664
tp665
Rp666
I01
sg1
(g2
(S'U2'
p667
I0
I1
tp668
Rp669
(I3
S'<'
p670
NNNI8
I4
I8
tp671
bS'kp\x00\x00\x06r\x00\x00'
p672
tp673
Rp674
I01
sg1
(g2
(S'U2'
p675
I0
I1
tp676
Rp677
(I3
S'<'
p678
NNNI8
I4
I8
tp679
bS'\xda\x8b\x00\x00\x80\x90\x00\x00'
p680
tp681
Rp682
I01
sg1
(g2
(S'U3'
p683
I0
I1
tp684
Rp685
(I3
S'<'
p686
NNNI12
I4
I8
tp687
bS'\tN\x00\x00kQ\x00\x00\x82\x82\x00\x00'
p688
tp689
Rp690
I01
sg1
(g2
(S'U2'
p691
I0
I1
tp692
Rp693
(I3
S'<'
p694
NNNI8
I4
I8
tp695
bS'\x9cQ\x00\x00L\x88\x00\x00'
p696
tp697
Rp698
I01
sg1
(g2
(S'U1'
p699
I0
I1
tp700
Rp701
(I3
S'<'
p702
NNNI4
I4
I8
tp703
bS'!\x00\x00\x00'
p704
tp705
Rp706
I01
sg1
(g2
(S'U4'
p707
I0
I1
tp708
Rp709
(I3
S'<'
p710
NNNI16
I4
I8
tp711
bS'x\x00\x00\x00x\x00\x00\x00x\x00\x00\x00x\x00\x00\x00'
p712
tp713
Rp714
I01
sg1
(g2
(S'U2'
p715
I0
I1
tp716
Rp717
(I3
S'<'
p718
NNNI8
I4
I8
tp719
bS'\xa2b\x00\x00-\x8d\x00\x00'
p720
tp721
Rp722
I01
sg1
(g2
(S'U2'
p723
I0
I1
tp724
Rp725
(I3
S'<'
p726
NNNI8
I4
I8
tp727
bS'\x86\x98\x00\x00\xd6S\x00\x00'
p728
tp729
Rp730
I01
sg1
(g2
(S'U1'
p731
I0
I1
tp732
Rp733
(I3
S'<'
p734
NNNI4
I4
I8
tp735
bS'\xd0Y\x00\x00'
p736
tp737
Rp738
I01
sg1
(g2
(S'U2'
p739
I0
I1
tp740
Rp741
(I3
S'<'
p742
NNNI8
I4
I8
tp743
bS'\xb0e\x00\x00\xc1T\x00\x00'
p744
tp745
Rp746
I01
sg1
(g2
(S'U2'
p747
I0
I1
tp748
Rp749
(I3
S'<'
p750
NNNI8
I4
I8
tp751
bS'\x8e\x7f\x00\x00\xfdV\x00\x00'
p752
tp753
Rp754
I01
sg1
(g2
(S'U2'
p755
I0
I1
tp756
Rp757
(I3
S'<'
p758
NNNI8
I4
I8
tp759
bS'7\x8d\x00\x00>k\x00\x00'
p760
tp761
Rp762
I01
sg1
(g2
(S'U2'
p763
I0
I1
tp764
Rp765
(I3
S'<'
p766
NNNI8
I4
I8
tp767
bS'\x8cN\x00\x00|i\x00\x00'
p768
tp769
Rp770
I01
sg1
(g2
(S'U2'
p771
I0
I1
tp772
Rp773
(I3
S'<'
p774
NNNI8
I4
I8
tp775
bS'7b\x00\x00\rT\x00\x00'
p776
tp777
Rp778
I01
sg1
(g2
(S'U2'
p779
I0
I1
tp780
Rp781
(I3
S'<'
p782
NNNI8
I4
I8
tp783
bS'\xf4\x81\x00\x005u\x00\x00'
p784
tp785
Rp786
I01
sg1
(g2
(S'U2'
p787
I0
I1
tp788
Rp789
(I3
S'<'
p790
NNNI8
I4
I8
tp791
bS'\t\x90\x00\x00-\x8d\x00\x00'
p792
tp793
Rp794
I01
sg1
(g2
(S'U2'
p795
I0
I1
tp796
Rp797
(I3
S'<'
p798
NNNI8
I4
I8
tp799
bS'\xb7\x83\x00\x00`\x8d\x00\x00'
p800
tp801
Rp802
I01
sg1
(g2
(S'U2'
p803
I0
I1
tp804
Rp805
(I3
S'<'
p806
NNNI8
I4
I8
tp807
bS'\xefy\x00\x00\x06R\x00\x00'
p808
tp809
Rp810
I01
sg1
(g2
(S'U2'
p811
I0
I1
tp812
Rp813
(I3
S'<'
p814
NNNI8
I4
I8
tp815
bS'\x9cU\x00\x00\xce\x8f\x00\x00'
p816
tp817
Rp818
I01
sg1
(g2
(S'U3'
p819
I0
I1
tp820
Rp821
(I3
S'<'
p822
NNNI12
I4
I8
tp823
bS'\x00_\x00\x00\xe8\x95\x00\x00\xa2~\x00\x00'
p824
tp825
Rp826
I01
sg1
(g2
(S'U10'
p827
I0
I1
tp828
Rp829
(I3
S'<'
p830
NNNI40
I4
I8
tp831
bS'x\x00\x00\x00x\x00\x00\x00x\x00\x00\x00x\x00\x00\x00x\x00\x00\x00x\x00\x00\x00x\x00\x00\x00x\x00\x00\x00x\x00\x00\x00x\x00\x00\x00'
p832
tp833
Rp834
I01
sg1
(g2
(S'U1'
p835
I0
I1
tp836
Rp837
(I3
S'<'
p838
NNNI4
I4
I8
tp839
bS'\xa13\x00\x00'
p840
tp841
Rp842
I01
sg1
(g2
(S'U2'
p843
I0
I1
tp844
Rp845
(I3
S'<'
p846
NNNI8
I4
I8
tp847
bS'sY\x00\x00\xbaN\x00\x00'
p848
tp849
Rp850
I01
sg1
(g2
(S'U2'
p851
I0
I1
tp852
Rp853
(I3
S'<'
p854
NNNI8
I4
I8
tp855
bS'\xde\x98\x00\x00:g\x00\x00'
p856
tp857
Rp858
I01
sg1
(g2
(S'U2'
p859
I0
I1
tp860
Rp861
(I3
S'<'
p862
NNNI8
I4
I8
tp863
bS'2\x00\x00\x000\x00\x00\x00'
p864
tp865
Rp866
I01
sg1
(g2
(S'U2'
p867
I0
I1
tp868
Rp869
(I3
S'<'
p870
NNNI8
I4
I8
tp871
bS'\x84\x98\x00\x00\xa6~\x00\x00'
p872
tp873
Rp874
I01
sg1
(g2
(S'U2'
p875
I0
I1
tp876
Rp877
(I3
S'<'
p878
NNNI8
I4
I8
tp879
bS'\x00\x95\x00\x00.U\x00\x00'
p880
tp881
Rp882
I01
sg1
(g2
(S'U1'
p883
I0
I1
tp884
Rp885
(I3
S'<'
p886
NNNI4
I4
I8
tp887
bS'\x08g\x00\x00'
p888
tp889
Rp890
I01
sg1
(g2
(S'U4'
p891
I0
I1
tp892
Rp893
(I3
S'<'
p894
NNNI16
I4
I8
tp895
bS'2\x00\x00\x000\x00\x00\x001\x00\x00\x005\x00\x00\x00'
p896
tp897
Rp898
I01
sg1
(g2
(S'U2'
p899
I0
I1
tp900
Rp901
(I3
S'<'
p902
NNNI8
I4
I8
tp903
bS'\x13N\x00\x00\x1aN\x00\x00'
p904
tp905
Rp906
I01
sg1
(g2
(S'U4'
p907
I0
I1
tp908
Rp909
(I3
S'<'
p910
NNNI16
I4
I8
tp911
bS'lQ\x00\x00\xf8S\x00\x000W\x00\x00@W\x00\x00'
p912
tp913
Rp914
I01
sg1
(g2
(S'U2'
p915
I0
I1
tp916
Rp917
(I3
S'<'
p918
NNNI8
I4
I8
tp919
bS'\x00g\x00\x00NO\x00\x00'
p920
tp921
Rp922
I01
sg1
(g2
(S'U3'
p923
I0
I1
tp924
Rp925
(I3
S'<'
p926
NNNI12
I4
I8
tp927
bS'\xb0e\x00\x00t^\x00\x00}Y\x00\x00'
p928
tp929
Rp930
I01
sg1
(g2
(S'U3'
p931
I0
I1
tp932
Rp933
(I3
S'<'
p934
NNNI12
I4
I8
tp935
bS'\xf9\x95\x00\x00CQ\x00\x00\xb5[\x00\x00'
p936
tp937
Rp938
I01
sg1
(g2
(S'U2'
p939
I0
I1
tp940
Rp941
(I3
S'<'
p942
NNNI8
I4
I8
tp943
bS'hT\x00\x00mQ\x00\x00'
p944
tp945
Rp946
I01
sg1
(g2
(S'U2'
p947
I0
I1
tp948
Rp949
(I3
S'<'
p950
NNNI8
I4
I8
tp951
bS'\xedz\x00\x00\xda\x8b\x00\x00'
p952
tp953
Rp954
I01
sg1
(g2
(S'U1'
p955
I0
I1
tp956
Rp957
(I3
S'<'
p958
NNNI4
I4
I8
tp959
bS'\xe5e\x00\x00'
p960
tp961
Rp962
I01
sg1
(g2
(S'U2'
p963
I0
I1
tp964
Rp965
(I3
S'<'
p966
NNNI8
I4
I8
tp967
bS'7b\x00\x00\x8bW\x00\x00'
p968
tp969
Rp970
I01
sg1
(g2
(S'U3'
p971
I0
I1
tp972
Rp973
(I3
S'<'
p974
NNNI12
I4
I8
tp975
bS'7h\x00\x00\x7fg\x00\x00?b\x00\x00'
p976
tp977
Rp978
I01
sg1
(g2
(S'U2'
p979
I0
I1
tp980
Rp981
(I3
S'<'
p982
NNNI8
I4
I8
tp983
bS'\xfe\x8b\x00\x00\x0bz\x00\x00'
p984
tp985
Rp986
I01
sg1
(g2
(S'U2'
p987
I0
I1
tp988
Rp989
(I3
S'<'
p990
NNNI8
I4
I8
tp991
bS"'\x8d\x00\x00\xc1T\x00\x00"
p992
tp993
Rp994
I01
sg1
(g2
(S'U4'
p995
I0
I1
tp996
Rp997
(I3
S'<'
p998
NNNI16
I4
I8
tp999
bS'T\x80\x00\x00\xfb|\x00\x005u\x00\x00\xdd\x8b\x00\x00'
p1000
tp1001
Rp1002
I01
sg1
(g2
(S'U2'
p1003
I0
I1
tp1004
Rp1005
(I3
S'<'
p1006
NNNI8
I4
I8
tp1007
bS'\x9aS\x00\x001r\x00\x00'
p1008
tp1009
Rp1010
I01
sg1
(g2
(S'U2'
p1011
I0
I1
tp1012
Rp1013
(I3
S'<'
p1014
NNNI8
I4
I8
tp1015
bS'\xdd\x8f\x00\x00\xd5l\x00\x00'
p1016
tp1017
Rp1018
I01
sg1
(g2
(S'U2'
p1019
I0
I1
tp1020
Rp1021
(I3
S'<'
p1022
NNNI8
I4
I8
tp1023
bS'\x0f\\\x00\x00\xeds\x00\x00'
p1024
tp1025
Rp1026
I01
sg1
(g2
(S'U2'
p1027
I0
I1
tp1028
Rp1029
(I3
S'<'
p1030
NNNI8
I4
I8
tp1031
bS'\xa4\x8b\x00\x00y{\x00\x00'
p1032
tp1033
Rp1034
I01
sg1
(g2
(S'U3'
p1035
I0
I1
tp1036
Rp1037
(I3
S'<'
p1038
NNNI12
I4
I8
tp1039
bS'\x00N\x00\x00\xe3S\x00\x00\xf7N\x00\x00'
p1040
tp1041
Rp1042
I01
sg1
(g2
(S'U4'
p1043
I0
I1
tp1044
Rp1045
(I3
S'<'
p1046
NNNI16
I4
I8
tp1047
bS'\x18O\x00\x00\xe0`\x00\x00;m\x00\x00\xa8R\x00\x00'
p1048
tp1049
Rp1050
I01
sg1
(g2
(S'U3'
p1051
I0
I1
tp1052
Rp1053
(I3
S'<'
p1054
NNNI12
I4
I8
tp1055
bS'\xe0e\x00\x00\xc5b\x00\x00\xddO\x00\x00'
p1056
tp1057
Rp1058
I01
sg1
(g2
(S'U2'
p1059
I0
I1
tp1060
Rp1061
(I3
S'<'
p1062
NNNI8
I4
I8
tp1063
bS'c\x88\x00\x00\xdcg\x00\x00'
p1064
tp1065
Rp1066
I01
sg1
(g2
(S'U4'
p1067
I0
I1
tp1068
Rp1069
(I3
S'<'
p1070
NNNI16
I4
I8
tp1071
bS':N\x00\x00\xa8`\x00\x00\rg\x00\x00\xa1R\x00\x00'
p1072
tp1073
Rp1074
I01
sg1
(g2
(S'U2'
p1075
I0
I1
tp1076
Rp1077
(I3
S'<'
p1078
NNNI8
I4
I8
tp1079
bS'\x00N\x00\x00t^\x00\x00'
p1080
tp1081
Rp1082
I01
sg1
(g2
(S'U1'
p1083
I0
I1
tp1084
Rp1085
(I3
S'<'
p1086
NNNI4
I4
I8
tp1087
bS'MQ\x00\x00'
p1088
tp1089
Rp1090
I01
sg1
(g2
(S'U1'
p1091
I0
I1
tp1092
Rp1093
(I3
S'<'
p1094
NNNI4
I4
I8
tp1095
bS'\xce\x8f\x00\x00'
p1096
tp1097
Rp1098
I01
sg1
(g2
(S'U1'
p1099
I0
I1
tp1100
Rp1101
(I3
S'<'
p1102
NNNI4
I4
I8
tp1103
bS'x\x00\x00\x00'
p1104
tp1105
Rp1106
I01
sg1
(g2
(S'U1'
p1107
I0
I1
tp1108
Rp1109
(I3
S'<'
p1110
NNNI4
I4
I8
tp1111
bS']y\x00\x00'
p1112
tp1113
Rp1114
I01
sg1
(g2
(S'U1'
p1115
I0
I1
tp1116
Rp1117
(I3
S'<'
p1118
NNNI4
I4
I8
tp1119
bS'aS\x00\x00'
p1120
tp1121
Rp1122
I01
sg1
(g2
(S'U2'
p1123
I0
I1
tp1124
Rp1125
(I3
S'<'
p1126
NNNI8
I4
I8
tp1127
bS'\tg\x00\x00<y\x00\x00'
p1128
tp1129
Rp1130
I01
sg1
(g2
(S'U2'
p1131
I0
I1
tp1132
Rp1133
(I3
S'<'
p1134
NNNI8
I4
I8
tp1135
bS'\tN\x00\x00\x08g\x00\x00'
p1136
tp1137
Rp1138
I01
sg1
(g2
(S'U2'
p1139
I0
I1
tp1140
Rp1141
(I3
S'<'
p1142
NNNI8
I4
I8
tp1143
bS'\xa4b\x00\x00\x06t\x00\x00'
p1144
tp1145
Rp1146
I01
sg1
(g2
(S'U2'
p1147
I0
I1
tp1148
Rp1149
(I3
S'<'
p1150
NNNI8
I4
I8
tp1151
bS';S\x00\x00\x1fu\x00\x00'
p1152
tp1153
Rp1154
I01
sg1
(g2
(S'U2'
p1155
I0
I1
tp1156
Rp1157
(I3
S'<'
p1158
NNNI8
I4
I8
tp1159
bS'\xbe|\x00\x00\xc5\x88\x00\x00'
p1160
tp1161
Rp1162
I01
sg1
(g2
(S'U2'
p1163
I0
I1
tp1164
Rp1165
(I3
S'<'
p1166
NNNI8
I4
I8
tp1167
bS'\n\\\x00\x00le\x00\x00'
p1168
tp1169
Rp1170
I01
sg1
(g2
(S'U1'
p1171
I0
I1
tp1172
Rp1173
(I3
S'<'
p1174
NNNI4
I4
I8
tp1175
bS's^\x00\x00'
p1176
tp1177
Rp1178
I01
sg1
(g2
(S'U1'
p1179
I0
I1
tp1180
Rp1181
(I3
S'<'
p1182
NNNI4
I4
I8
tp1183
bS'\xd4\x8f\x00\x00'
p1184
tp1185
Rp1186
I01
sg1
(g2
(S'U2'
p1187
I0
I1
tp1188
Rp1189
(I3
S'<'
p1190
NNNI8
I4
I8
tp1191
bS'P\x96\x00\x00\xf6e\x00\x00'
p1192
tp1193
Rp1194
I01
sg1
(g2
(S'U2'
p1195
I0
I1
tp1196
Rp1197
(I3
S'<'
p1198
NNNI8
I4
I8
tp1199
bS'}Y\x00\x00<y\x00\x00'
p1200
tp1201
Rp1202
I01
sg1
(g2
(S'U2'
p1203
I0
I1
tp1204
Rp1205
(I3
S'<'
p1206
NNNI8
I4
I8
tp1207
bS'x\x00\x00\x00x\x00\x00\x00'
p1208
tp1209
Rp1210
I01
sg1
(g2
(S'U11'
p1211
I0
I1
tp1212
Rp1213
(I3
S'<'
p1214
NNNI44
I4
I8
tp1215
bS'x\x00\x00\x00x\x00\x00\x00x\x00\x00\x00x\x00\x00\x00x\x00\x00\x00x\x00\x00\x00x\x00\x00\x00x\x00\x00\x00x\x00\x00\x00x\x00\x00\x00x\x00\x00\x00'
p1216
tp1217
Rp1218
I01
sg1
(g2
(S'U2'
p1219
I0
I1
tp1220
Rp1221
(I3
S'<'
p1222
NNNI8
I4
I8
tp1223
bS'E\x9b\x00\x00\x9bR\x00\x00'
p1224
tp1225
Rp1226
I01
sg1
(g2
(S'U2'
p1227
I0
I1
tp1228
Rp1229
(I3
S'<'
p1230
NNNI8
I4
I8
tp1231
bS'\x00_\x00\x00\x1aN\x00\x00'
p1232
tp1233
Rp1234
I01
sg1
(g2
(S'U3'
p1235
I0
I1
tp1236
Rp1237
(I3
S'<'
p1238
NNNI12
I4
I8
tp1239
bS'\xb1\x82\x00\x00CS\x00\x00\xa8\x9a\x00\x00'
p1240
tp1241
Rp1242
I01
sg1
(g2
(S'U2'
p1243
I0
I1
tp1244
Rp1245
(I3
S'<'
p1246
NNNI8
I4
I8
tp1247
bS'-\x8d\x00\x00ir\x00\x00'
p1248
tp1249
Rp1250
I01
sg1
(g2
(S'U2'
p1251
I0
I1
tp1252
Rp1253
(I3
S'<'
p1254
NNNI8
I4
I8
tp1255
bS'x\x00\x00\x00G\x00\x00\x00'
p1256
tp1257
Rp1258
I01
sg1
(g2
(S'U2'
p1259
I0
I1
tp1260
Rp1261
(I3
S'<'
p1262
NNNI8
I4
I8
tp1263
bS'\xd1S\x00\x00\x03^\x00\x00'
p1264
tp1265
Rp1266
I01
sg1
(g2
(S'U2'
p1267
I0
I1
tp1268
Rp1269
(I3
S'<'
p1270
NNNI8
I4
I8
tp1271
bS'\xb0e\x00\x00%f\x00\x00'
p1272
tp1273
Rp1274
I01
sg1
(g2
(S'U2'
p1275
I0
I1
tp1276
Rp1277
(I3
S'<'
p1278
NNNI8
I4
I8
tp1279
bS'x\x00\x00\x00S\x00\x00\x00'
p1280
tp1281
Rp1282
I01
sg1
(g2
(S'U1'
p1283
I0
I1
tp1284
Rp1285
(I3
S'<'
p1286
NNNI4
I4
I8
tp1287
bS'<y\x00\x00'
p1288
tp1289
Rp1290
I01
sg1
(g2
(S'U2'
p1291
I0
I1
tp1292
Rp1293
(I3
S'<'
p1294
NNNI8
I4
I8
tp1295
bS'\xa2\x8b\x00\x00-\x8d\x00\x00'
p1296
tp1297
Rp1298
I01
sg1
(g2
(S'U2'
p1299
I0
I1
tp1300
Rp1301
(I3
S'<'
p1302
NNNI8
I4
I8
tp1303
bS'%f\x00\x00c[\x00\x00'
p1304
tp1305
Rp1306
I01
sg1
(g2
(S'U3'
p1307
I0
I1
tp1308
Rp1309
(I3
S'<'
p1310
NNNI12
I4
I8
tp1311
bS'\xe6\x8b\x00\x00\xc5`\x00\x00\xf7\x8b\x00\x00'
p1312
tp1313
Rp1314
I01
sg1
(g2
(S'U2'
p1315
I0
I1
tp1316
Rp1317
(I3
S'<'
p1318
NNNI8
I4
I8
tp1319
bS'\x00N\x00\x00WY\x00\x00'
p1320
tp1321
Rp1322
I01
sg1
(g2
(S'U2'
p1323
I0
I1
tp1324
Rp1325
(I3
S'<'
p1326
NNNI8
I4
I8
tp1327
bS')R\x00\x00o`\x00\x00'
p1328
tp1329
Rp1330
I01
sg1
(g2
(S'U2'
p1331
I0
I1
tp1332
Rp1333
(I3
S'<'
p1334
NNNI8
I4
I8
tp1335
bS'\x95b\x00\x00D\x8d\x00\x00'
p1336
tp1337
Rp1338
I01
sg1
(g2
(S'U2'
p1339
I0
I1
tp1340
Rp1341
(I3
S'<'
p1342
NNNI8
I4
I8
tp1343
bS'~v\x00\x00\xa6^\x00\x00'
p1344
tp1345
Rp1346
I01
sg1
(g2
(S'U2'
p1347
I0
I1
tp1348
Rp1349
(I3
S'<'
p1350
NNNI8
I4
I8
tp1351
bS'1\x00\x00\x001\x00\x00\x00'
p1352
tp1353
Rp1354
I01
sg1
(g2
(S'U2'
p1355
I0
I1
tp1356
Rp1357
(I3
S'<'
p1358
NNNI8
I4
I8
tp1359
bS'_l\x00\x00\xcf\x82\x00\x00'
p1360
tp1361
Rp1362
I01
sg1
(g2
(S'U2'
p1363
I0
I1
tp1364
Rp1365
(I3
S'<'
p1366
NNNI8
I4
I8
tp1367
bS'1\x00\x00\x002\x00\x00\x00'
p1368
tp1369
Rp1370
I01
sg1
(g2
(S'U2'
p1371
I0
I1
tp1372
Rp1373
(I3
S'<'
p1374
NNNI8
I4
I8
tp1375
bS'1\x00\x00\x005\x00\x00\x00'
p1376
tp1377
Rp1378
I01
sg1
(g2
(S'U2'
p1379
I0
I1
tp1380
Rp1381
(I3
S'<'
p1382
NNNI8
I4
I8
tp1383
bS'\xb0e\x00\x00t^\x00\x00'
p1384
tp1385
Rp1386
I01
sg1
(g2
(S'U3'
p1387
I0
I1
tp1388
Rp1389
(I3
S'<'
p1390
NNNI12
I4
I8
tp1391
bS'}Y\x00\x00\x88m\x00\x00o`\x00\x00'
p1392
tp1393
Rp1394
I01
sg1
(g2
(S'U2'
p1395
I0
I1
tp1396
Rp1397
(I3
S'<'
p1398
NNNI8
I4
I8
tp1399
bS'\x11b\x00\x00\xf8S\x00\x00'
p1400
tp1401
Rp1402
I01
sg1
(g2
(S'U2'
p1403
I0
I1
tp1404
Rp1405
(I3
S'<'
p1406
NNNI8
I4
I8
tp1407
bS'kp\x00\x00\xedp\x00\x00'
p1408
tp1409
Rp1410
I01
sg1
(g2
(S'U2'
p1411
I0
I1
tp1412
Rp1413
(I3
S'<'
p1414
NNNI8
I4
I8
tp1415
bS'\xfa^\x00\x00Q{\x00\x00'
p1416
tp1417
Rp1418
I01
sg1
(g2
(S'U2'
p1419
I0
I1
tp1420
Rp1421
(I3
S'<'
p1422
NNNI8
I4
I8
tp1423
bS'\xcf\x82\x00\x00\xde]\x00\x00'
p1424
tp1425
Rp1426
I01
sg1
(g2
(S'U2'
p1427
I0
I1
tp1428
Rp1429
(I3
S'<'
p1430
NNNI8
I4
I8
tp1431
bS'\x00_\x00\x00t^\x00\x00'
p1432
tp1433
Rp1434
I01
sg1
(g2
(S'U2'
p1435
I0
I1
tp1436
Rp1437
(I3
S'<'
p1438
NNNI8
I4
I8
tp1439
bS'eg\x00\x00\x97^\x00\x00'
p1440
tp1441
Rp1442
I01
sg1
(g2
(S'U2'
p1443
I0
I1
tp1444
Rp1445
(I3
S'<'
p1446
NNNI8
I4
I8
tp1447
bS'\xf1\x82\x00\x00\xed\x8b\x00\x00'
p1448
tp1449
Rp1450
I01
sg1
(g2
(S'U1'
p1451
I0
I1
tp1452
Rp1453
(I3
S'<'
p1454
NNNI4
I4
I8
tp1455
bS'|i\x00\x00'
p1456
tp1457
Rp1458
I01
sg1
(g2
(S'U2'
p1459
I0
I1
tp1460
Rp1461
(I3
S'<'
p1462
NNNI8
I4
I8
tp1463
bS'\x00N\x00\x00|i\x00\x00'
p1464
tp1465
Rp1466
I01
sg1
(g2
(S'U2'
p1467
I0
I1
tp1468
Rp1469
(I3
S'<'
p1470
NNNI8
I4
I8
tp1471
bS'\x9d\x98\x00\x00\x16Y\x00\x00'
p1472
tp1473
Rp1474
I01
sg1
(g2
(S'U2'
p1475
I0
I1
tp1476
Rp1477
(I3
S'<'
p1478
NNNI8
I4
I8
tp1479
bS"'Y\x00\x00<y\x00\x00"
p1480
tp1481
Rp1482
I01
sg1
(g2
(S'U2'
p1483
I0
I1
tp1484
Rp1485
(I3
S'<'
p1486
NNNI8
I4
I8
tp1487
bS'\xe5e\x00\x00\xf3\x81\x00\x00'
p1488
tp1489
Rp1490
I01
sg1
(g2
(S'U2'
p1491
I0
I1
tp1492
Rp1493
(I3
S'<'
p1494
NNNI8
I4
I8
tp1495
bS'\x88m\x00\x009\x8d\x00\x00'
p1496
tp1497
Rp1498
I01
sg1
(g2
(S'U2'
p1499
I0
I1
tp1500
Rp1501
(I3
S'<'
p1502
NNNI8
I4
I8
tp1503
bS'\xb2N\x00\x001r\x00\x00'
p1504
tp1505
Rp1506
I01
sg1
(g2
(S'U2'
p1507
I0
I1
tp1508
Rp1509
(I3
S'<'
p1510
NNNI8
I4
I8
tp1511
bS'\x98b\x00\x00cb\x00\x00'
p1512
tp1513
Rp1514
I01
sg1
(g2
(S'U1'
p1515
I0
I1
tp1516
Rp1517
(I3
S'<'
p1518
NNNI4
I4
I8
tp1519
bS'\xb0s\x00\x00'
p1520
tp1521
Rp1522
I01
sg1
(g2
(S'U1'
p1523
I0
I1
tp1524
Rp1525
(I3
S'<'
p1526
NNNI4
I4
I8
tp1527
bS'\xb2\x80\x00\x00'
p1528
tp1529
Rp1530
I01
sg1
(g2
(S'U6'
p1531
I0
I1
tp1532
Rp1533
(I3
S'<'
p1534
NNNI24
I4
I8
tp1535
bS'x\x00\x00\x00x\x00\x00\x00x\x00\x00\x00x\x00\x00\x00x\x00\x00\x00x\x00\x00\x00'
p1536
tp1537
Rp1538
I01
sg1
(g2
(S'U2'
p1539
I0
I1
tp1540
Rp1541
(I3
S'<'
p1542
NNNI8
I4
I8
tp1543
bS'CQ\x00\x00\xb5[\x00\x00'
p1544
tp1545
Rp1546
I01
sg1
(g2
(S'U1'
p1547
I0
I1
tp1548
Rp1549
(I3
S'<'
p1550
NNNI4
I4
I8
tp1551
bS'\xcc\x91\x00\x00'
p1552
tp1553
Rp1554
I01
sg1
(g2
(S'U3'
p1555
I0
I1
tp1556
Rp1557
(I3
S'<'
p1558
NNNI12
I4
I8
tp1559
bS'"k\x00\x00\xce\x8f\x00\x00\xa8`\x00\x00'
p1560
tp1561
Rp1562
I01
sg1
(g2
(S'U1'
p1563
I0
I1
tp1564
Rp1565
(I3
S'<'
p1566
NNNI4
I4
I8
tp1567
bS'WY\x00\x00'
p1568
tp1569
Rp1570
I01
sg1
(g2
(S'U3'
p1571
I0
I1
tp1572
Rp1573
(I3
S'<'
p1574
NNNI12
I4
I8
tp1575
bS'\x13N\x00\x00VS\x00\x00\x97^\x00\x00'
p1576
tp1577
Rp1578
I01
sg1
(g2
(S'U2'
p1579
I0
I1
tp1580
Rp1581
(I3
S'<'
p1582
NNNI8
I4
I8
tp1583
bS'\x9fS\x00\x00\xf7N\x00\x00'
p1584
tp1585
Rp1586
I01
sg1
(g2
(S'U2'
p1587
I0
I1
tp1588
Rp1589
(I3
S'<'
p1590
NNNI8
I4
I8
tp1591
bS'HQ\x00\x000R\x00\x00'
p1592
tp1593
Rp1594
I01
sg1
(g2
(S'U3'
p1595
I0
I1
tp1596
Rp1597
(I3
S'<'
p1598
NNNI12
I4
I8
tp1599
bS':g\x00\x00hV\x00\x00\xbaN\x00\x00'
p1600
tp1601
Rp1602
I01
sg1
(g2
(S'U3'
p1603
I0
I1
tp1604
Rp1605
(I3
S'<'
p1606
NNNI12
I4
I8
tp1607
bS'\x9aN\x00\x00l\x9a\x00\x00\n\x90\x00\x00'
p1608
tp1609
Rp1610
I01
sg1
(g2
(S'U3'
p1611
I0
I1
tp1612
Rp1613
(I3
S'<'
p1614
NNNI12
I4
I8
tp1615
bS'\xab\x8e\x00\x00\xfdN\x00\x00\xc1\x8b\x00\x00'
p1616
tp1617
Rp1618
I01
sg1
(g2
(S'U3'
p1619
I0
I1
tp1620
Rp1621
(I3
S'<'
p1622
NNNI12
I4
I8
tp1623
bS'\xb0e\x00\x00f[\x00\x00\x1fg\x00\x00'
p1624
tp1625
Rp1626
I01
sg1
(g2
(S'U2'
p1627
I0
I1
tp1628
Rp1629
(I3
S'<'
p1630
NNNI8
I4
I8
tp1631
bS'~\x81\x00\x00\xaf\x8b\x00\x00'
p1632
tp1633
Rp1634
I01
sg1
(g2
(S'U2'
p1635
I0
I1
tp1636
Rp1637
(I3
S'<'
p1638
NNNI8
I4
I8
tp1639
bS',g\x00\x00\x97^\x00\x00'
p1640
tp1641
Rp1642
I01
sg1
(g2
(S'U1'
p1643
I0
I1
tp1644
Rp1645
(I3
S'<'
p1646
NNNI4
I4
I8
tp1647
bS'\x97^\x00\x00'
p1648
tp1649
Rp1650
I01
sg1
(g2
(S'U2'
p1651
I0
I1
tp1652
Rp1653
(I3
S'<'
p1654
NNNI8
I4
I8
tp1655
bS'\xbe\x8b\x00\x00\xa1\x8b\x00\x00'
p1656
tp1657
Rp1658
I01
sg1
(g2
(S'U2'
p1659
I0
I1
tp1660
Rp1661
(I3
S'<'
p1662
NNNI8
I4
I8
tp1663
bS'kQ\x00\x00\x98b\x00\x00'
p1664
tp1665
Rp1666
I01
sg1
(g2
(S'U2'
p1667
I0
I1
tp1668
Rp1669
(I3
S'<'
p1670
NNNI8
I4
I8
tp1671
bS'\x94N\x00\x00\x98b\x00\x00'
p1672
tp1673
Rp1674
I01
sg1
(g2
(S'U9'
p1675
I0
I1
tp1676
Rp1677
(I3
S'<'
p1678
NNNI36
I4
I8
tp1679
bS'x\x00\x00\x00x\x00\x00\x00x\x00\x00\x00x\x00\x00\x00x\x00\x00\x00x\x00\x00\x00x\x00\x00\x00x\x00\x00\x00x\x00\x00\x00'
p1680
tp1681
Rp1682
I01
sg1
(g2
(S'U2'
p1683
I0
I1
tp1684
Rp1685
(I3
S'<'
p1686
NNNI8
I4
I8
tp1687
bS'\x87e\x00\x00\xf8\x80\x00\x00'
p1688
tp1689
Rp1690
I01
sg1
(g2
(S'U2'
p1691
I0
I1
tp1692
Rp1693
(I3
S'<'
p1694
NNNI8
I4
I8
tp1695
bS'\x9d\x98\x00\x00\xa6^\x00\x00'
p1696
tp1697
Rp1698
I01
sg1
(g2
(S'U2'
p1699
I0
I1
tp1700
Rp1701
(I3
S'<'
p1702
NNNI8
I4
I8
tp1703
bS'\xc5e\x00\x008n\x00\x00'
p1704
tp1705
Rp1706
I01
sg1
(g2
(S'U2'
p1707
I0
I1
tp1708
Rp1709
(I3
S'<'
p1710
NNNI8
I4
I8
tp1711
bS'\xd5l\x00\x00b\x96\x00\x00'
p1712
tp1713
Rp1714
I01
sg1
(g2
(S'U2'
p1715
I0
I1
tp1716
Rp1717
(I3
S'<'
p1718
NNNI8
I4
I8
tp1719
bS'\xdb\x8f\x00\x00\x97^\x00\x00'
p1720
tp1721
Rp1722
I01
sg1
(g2
(S'U2'
p1723
I0
I1
tp1724
Rp1725
(I3
S'<'
p1726
NNNI8
I4
I8
tp1727
bS'1\x00\x00\x000\x00\x00\x00'
p1728
tp1729
Rp1730
I01
sg1
(g2
(S'U2'
p1731
I0
I1
tp1732
Rp1733
(I3
S'<'
p1734
NNNI8
I4
I8
tp1735
bS'\xceW\x00\x00\xa1{\x00\x00'
p1736
tp1737
Rp1738
I01
sg1
(g2
(S'U2'
p1739
I0
I1
tp1740
Rp1741
(I3
S'<'
p1742
NNNI8
I4
I8
tp1743
bS'\xce\x8f\x00\x00\xa5c\x00\x00'
p1744
tp1745
Rp1746
I01
sg1
(g2
(S'U2'
p1747
I0
I1
tp1748
Rp1749
(I3
S'<'
p1750
NNNI8
I4
I8
tp1751
bS'NS\x00\x00:N\x00\x00'
p1752
tp1753
Rp1754
I01
sg1
(g2
(S'U2'
p1755
I0
I1
tp1756
Rp1757
(I3
S'<'
p1758
NNNI8
I4
I8
tp1759
bS'\xa2[\x00\x007b\x00\x00'
p1760
tp1761
Rp1762
I01
sg1
(g2
(S'U2'
p1763
I0
I1
tp1764
Rp1765
(I3
S'<'
p1766
NNNI8
I4
I8
tp1767
bS'\xb5b\x00\x00\xbcb\x00\x00'
p1768
tp1769
Rp1770
I01
sg1
(g2
(S'U2'
p1771
I0
I1
tp1772
Rp1773
(I3
S'<'
p1774
NNNI8
I4
I8
tp1775
bS'KN\x00\x00E\x96\x00\x00'
p1776
tp1777
Rp1778
I01
sg1
(g2
(S'U2'
p1779
I0
I1
tp1780
Rp1781
(I3
S'<'
p1782
NNNI8
I4
I8
tp1783
bS'\x1fw\x00\x00\xf8v\x00\x00'
p1784
tp1785
Rp1786
I01
sg1
(g2
(S'U2'
p1787
I0
I1
tp1788
Rp1789
(I3
S'<'
p1790
NNNI8
I4
I8
tp1791
bS'\x1fa\x00\x00"\x8c\x00\x00'
p1792
tp1793
Rp1794
I01
sg1
(g2
(S'U1'
p1795
I0
I1
tp1796
Rp1797
(I3
S'<'
p1798
NNNI4
I4
I8
tp1799
bS'\xf3`\x00\x00'
p1800
tp1801
Rp1802
I01
sg1
(g2
(S'U1'
p1803
I0
I1
tp1804
Rp1805
(I3
S'<'
p1806
NNNI4
I4
I8
tp1807
bS'\xf7N\x00\x00'
p1808
tp1809
Rp1810
I01
sg1
(g2
(S'U2'
p1811
I0
I1
tp1812
Rp1813
(I3
S'<'
p1814
NNNI8
I4
I8
tp1815
bS'<y\x00\x00\xc1T\x00\x00'
p1816
tp1817
Rp1818
I01
sg1
(g2
(S'U4'
p1819
I0
I1
tp1820
Rp1821
(I3
S'<'
p1822
NNNI16
I4
I8
tp1823
bS'\xe1O\x00\x00(u\x00\x007\x8d\x00\x00>k\x00\x00'
p1824
tp1825
Rp1826
I01
sg1
(g2
(S'U2'
p1827
I0
I1
tp1828
Rp1829
(I3
S'<'
p1830
NNNI8
I4
I8
tp1831
bS'\xbe|\x00\x00\xc1T\x00\x00'
p1832
tp1833
Rp1834
I01
sg1
(g2
(S'U2'
p1835
I0
I1
tp1836
Rp1837
(I3
S'<'
p1838
NNNI8
I4
I8
tp1839
bS'5u\x00\x00\xdd\x8b\x00\x00'
p1840
tp1841
Rp1842
I01
sg1
(g2
(S'U2'
p1843
I0
I1
tp1844
Rp1845
(I3
S'<'
p1846
NNNI8
I4
I8
tp1847
bS'\xe0e\x00\x00!\x95\x00\x00'
p1848
tp1849
Rp1850
I01
sg1
(g2
(S'U1'
p1851
I0
I1
tp1852
Rp1853
(I3
S'<'
p1854
NNNI4
I4
I8
tp1855
bS'\x07N\x00\x00'
p1856
tp1857
Rp1858
I01
sg1
(g2
(S'U2'
p1859
I0
I1
tp1860
Rp1861
(I3
S'<'
p1862
NNNI8
I4
I8
tp1863
bS'\xa9\x8b\x00\x00)R\x00\x00'
p1864
tp1865
Rp1866
I01
sg1
(g2
(S'U2'
p1867
I0
I1
tp1868
Rp1869
(I3
S'<'
p1870
NNNI8
I4
I8
tp1871
bS'\x8e\x7f\x00\x00\xb9[\x00\x00'
p1872
tp1873
Rp1874
I01
sg1
(g2
(S'U2'
p1875
I0
I1
tp1876
Rp1877
(I3
S'<'
p1878
NNNI8
I4
I8
tp1879
bS'\xb6[\x00\x005u\x00\x00'
p1880
tp1881
Rp1882
I01
sg1
(g2
(S'U2'
p1883
I0
I1
tp1884
Rp1885
(I3
S'<'
p1886
NNNI8
I4
I8
tp1887
bS'f\x8b\x00\x00\xdf[\x00\x00'
p1888
tp1889
Rp1890
I01
sg1
(g2
(S'U5'
p1891
I0
I1
tp1892
Rp1893
(I3
S'<'
p1894
NNNI20
I4
I8
tp1895
bS'x\x00\x00\x00x\x00\x00\x00x\x00\x00\x00x\x00\x00\x00x\x00\x00\x00'
p1896
tp1897
Rp1898
I01
sg1
(g2
(S'U2'
p1899
I0
I1
tp1900
Rp1901
(I3
S'<'
p1902
NNNI8
I4
I8
tp1903
bS'\xefS\x00\x00\xabN\x00\x00'
p1904
tp1905
Rp1906
I01
sg1
(g2
(S'U2'
p1907
I0
I1
tp1908
Rp1909
(I3
S'<'
p1910
NNNI8
I4
I8
tp1911
bS'IQ\x00\x004N\x00\x00'
p1912
tp1913
Rp1914
I01
sg1
(g2
(S'U2'
p1915
I0
I1
tp1916
Rp1917
(I3
S'<'
p1918
NNNI8
I4
I8
tp1919
bS'\x98b\x00\x00w\x8d\x00\x00'
p1920
tp1921
Rp1922
I01
sg1
(g2
(S'U1'
p1923
I0
I1
tp1924
Rp1925
(I3
S'<'
p1926
NNNI4
I4
I8
tp1927
bS'?b\x00\x00'
p1928
tp1929
Rp1930
I01
sg1
(g2
(S'U2'
p1931
I0
I1
tp1932
Rp1933
(I3
S'<'
p1934
NNNI8
I4
I8
tp1935
bS'\x8fy\x00\x00)R\x00\x00'
p1936
tp1937
Rp1938
I01
sg1
(g2
(S'U2'
p1939
I0
I1
tp1940
Rp1941
(I3
S'<'
p1942
NNNI8
I4
I8
tp1943
bS'\xa1\x80\x00\x00hy\x00\x00'
p1944
tp1945
Rp1946
I01
sg1
(g2
(S'U2'
p1947
I0
I1
tp1948
Rp1949
(I3
S'<'
p1950
NNNI8
I4
I8
tp1951
bS'\xf9[\x00\x00b\x97\x00\x00'
p1952
tp1953
Rp1954
I01
sg1
(g2
(S'U2'
p1955
I0
I1
tp1956
Rp1957
(I3
S'<'
p1958
NNNI8
I4
I8
tp1959
bS'\xae_\x00\x00ZS\x00\x00'
p1960
tp1961
Rp1962
I01
sg1
(g2
(S'U2'
p1963
I0
I1
tp1964
Rp1965
(I3
S'<'
p1966
NNNI8
I4
I8
tp1967
bS';N\x00\x00%\x84\x00\x00'
p1968
tp1969
Rp1970
I01
sg1
(g2
(S'U19'
p1971
I0
I1
tp1972
Rp1973
(I3
S'<'
p1974
NNNI76
I4
I8
tp1975
bS'x\x00\x00\x00x\x00\x00\x00x\x00\x00\x00x\x00\x00\x00x\x00\x00\x00x\x00\x00\x00x\x00\x00\x00x\x00\x00\x00x\x00\x00\x00x\x00\x00\x00x\x00\x00\x00x\x00\x00\x00x\x00\x00\x00x\x00\x00\x00x\x00\x00\x00x\x00\x00\x00x\x00\x00\x00x\x00\x00\x00x\x00\x00\x00'
p1976
tp1977
Rp1978
I01
sg1
(g2
(S'U2'
p1979
I0
I1
tp1980
Rp1981
(I3
S'<'
p1982
NNNI8
I4
I8
tp1983
bS'\xb6[\x00\x00\x7f\x95\x00\x00'
p1984
tp1985
Rp1986
I01
sg1
(g2
(S'U2'
p1987
I0
I1
tp1988
Rp1989
(I3
S'<'
p1990
NNNI8
I4
I8
tp1991
bS'\x82\x82\x00\x00\xe5e\x00\x00'
p1992
tp1993
Rp1994
I01
sg1
(g2
(S'U2'
p1995
I0
I1
tp1996
Rp1997
(I3
S'<'
p1998
NNNI8
I4
I8
tp1999
bS'5\x8d\x00\x00\xbe[\x00\x00'
p2000
tp2001
Rp2002
I01
sg1
(g2
(S'U2'
p2003
I0
I1
tp2004
Rp2005
(I3
S'<'
p2006
NNNI8
I4
I8
tp2007
bS'\xe8b\x00\x00Sb\x00\x00'
p2008
tp2009
Rp2010
I01
sg1
(g2
(S'U2'
p2011
I0
I1
tp2012
Rp2013
(I3
S'<'
p2014
NNNI8
I4
I8
tp2015
bS'\x1fa\x00\x00i`\x00\x00'
p2016
tp2017
Rp2018
I01
sg1
(g2
(S'U1'
p2019
I0
I1
tp2020
Rp2021
(I3
S'<'
p2022
NNNI4
I4
I8
tp2023
bS'\xf6e\x00\x00'
p2024
tp2025
Rp2026
I01
sg1
(g2
(S'U3'
p2027
I0
I1
tp2028
Rp2029
(I3
S'<'
p2030
NNNI12
I4
I8
tp2031
bS'c\x00\x00\x00o\x00\x00\x00m\x00\x00\x00'
p2032
tp2033
Rp2034
I01
sg1
(g2
(S'U2'
p2035
I0
I1
tp2036
Rp2037
(I3
S'<'
p2038
NNNI8
I4
I8
tp2039
bS'\x00N\x00\x00\xfdN\x00\x00'
p2040
tp2041
Rp2042
I01
sg1
(g2
(S'U2'
p2043
I0
I1
tp2044
Rp2045
(I3
S'<'
p2046
NNNI8
I4
I8
tp2047
bS'hQ\x00\x00:W\x00\x00'
p2048
tp2049
Rp2050
I01
sg1
(g2
(S'U2'
p2051
I0
I1
tp2052
Rp2053
(I3
S'<'
p2054
NNNI8
I4
I8
tp2055
bS'\xb0e\x00\x00\x01\x80\x00\x00'
p2056
tp2057
Rp2058
I01
sg1
(g2
(S'U2'
p2059
I0
I1
tp2060
Rp2061
(I3
S'<'
p2062
NNNI8
I4
I8
tp2063
bS'\x1fg\x00\x00\x85_\x00\x00'
p2064
tp2065
Rp2066
I01
sg1
(g2
(S'U4'
p2067
I0
I1
tp2068
Rp2069
(I3
S'<'
p2070
NNNI16
I4
I8
tp2071
bS'\rT\x00\x00\x9d\x98\x00\x00\tg\x00\x00P\x96\x00\x00'
p2072
tp2073
Rp2074
I01
sg1
(g2
(S'U2'
p2075
I0
I1
tp2076
Rp2077
(I3
S'<'
p2078
NNNI8
I4
I8
tp2079
bS'\x85Q\x00\x00c\x88\x00\x00'
p2080
tp2081
Rp2082
I01
sg1
(g2
(S'U2'
p2083
I0
I1
tp2084
Rp2085
(I3
S'<'
p2086
NNNI8
I4
I8
tp2087
bS'\xe5]\x00\x00\\O\x00\x00'
p2088
tp2089
Rp2090
I01
sg1
(g2
(S'U1'
p2091
I0
I1
tp2092
Rp2093
(I3
S'<'
p2094
NNNI4
I4
I8
tp2095
bS'\xb5b\x00\x00'
p2096
tp2097
Rp2098
I01
sg1
(g2
(S'U2'
p2099
I0
I1
tp2100
Rp2101
(I3
S'<'
p2102
NNNI8
I4
I8
tp2103
bS"'Y\x00\x00\x8bW\x00\x00"
p2104
tp2105
Rp2106
I01
sg1
(g2
(S'U2'
p2107
I0
I1
tp2108
Rp2109
(I3
S'<'
p2110
NNNI8
I4
I8
tp2111
bS'\xd0c\x00\x00MR\x00\x00'
p2112
tp2113
Rp2114
I01
sg1
(g2
(S'U1'
p2115
I0
I1
tp2116
Rp2117
(I3
S'<'
p2118
NNNI4
I4
I8
tp2119
bS'\xc1T\x00\x00'
p2120
tp2121
Rp2122
I01
sg1
(g2
(S'U2'
p2123
I0
I1
tp2124
Rp2125
(I3
S'<'
p2126
NNNI8
I4
I8
tp2127
bS'\xe5e\x00\x00,g\x00\x00'
p2128
tp2129
Rp2130
I01
sg1
(g2
(S'U1'
p2131
I0
I1
tp2132
Rp2133
(I3
S'<'
p2134
NNNI4
I4
I8
tp2135
bS'\xcb%\x00\x00'
p2136
tp2137
Rp2138
I01
sg1
(g2
(S'U3'
p2139
I0
I1
tp2140
Rp2141
(I3
S'<'
p2142
NNNI12
I4
I8
tp2143
bS'x\x00\x00\x00x\x00\x00\x00x\x00\x00\x00'
p2144
tp2145
Rp2146
I01
sg1
(g2
(S'U2'
p2147
I0
I1
tp2148
Rp2149
(I3
S'<'
p2150
NNNI8
I4
I8
tp2151
bS'\x86^\x00\x00]y\x00\x00'
p2152
tp2153
Rp2154
I01
sg1
(g2
(S'U2'
p2155
I0
I1
tp2156
Rp2157
(I3
S'<'
p2158
NNNI8
I4
I8
tp2159
bS'0W\x00\x00\xc1\x94\x00\x00'
p2160
tp2161
Rp2162
I01
sg1
(g2
(S'U2'
p2163
I0
I1
tp2164
Rp2165
(I3
S'<'
p2166
NNNI8
I4
I8
tp2167
bS'\x1fa\x00\x00\xc9\x89\x00\x00'
p2168
tp2169
Rp2170
I01
sg1
(g2
(S'U1'
p2171
I0
I1
tp2172
Rp2173
(I3
S'<'
p2174
NNNI4
I4
I8
tp2175
bS'`\x8d\x00\x00'
p2176
tp2177
Rp2178
I01
sg1
(g2
(S'U2'
p2179
I0
I1
tp2180
Rp2181
(I3
S'<'
p2182
NNNI8
I4
I8
tp2183
bS'\xedw\x00\x00\xe1O\x00\x00'
p2184
tp2185
Rp2186
I01
sg1
(g2
(S'U2'
p2187
I0
I1
tp2188
Rp2189
(I3
S'<'
p2190
NNNI8
I4
I8
tp2191
bS'FU\x00\x00:W\x00\x00'
p2192
tp2193
Rp2194
I01
sg1
(g2
(S'U2'
p2195
I0
I1
tp2196
Rp2197
(I3
S'<'
p2198
NNNI8
I4
I8
tp2199
bS'CQ\x00\x00w\x8d\x00\x00'
p2200
tp2201
Rp2202
I01
sg1
(g2
(S'U2'
p2203
I0
I1
tp2204
Rp2205
(I3
S'<'
p2206
NNNI8
I4
I8
tp2207
bS'3\x00\x00\x000\x00\x00\x00'
p2208
tp2209
Rp2210
I01
sg1
(g2
(S'U2'
p2211
I0
I1
tp2212
Rp2213
(I3
S'<'
p2214
NNNI8
I4
I8
tp2215
bS'\tg\x00\x00P\x96\x00\x00'
p2216
tp2217
Rp2218
I01
sg1
(g2
(S'U2'
p2219
I0
I1
tp2220
Rp2221
(I3
S'<'
p2222
NNNI8
I4
I8
tp2223
bS'\xc3O\x00\x00\x00\x95\x00\x00'
p2224
tp2225
Rp2226
I01
sg1
(g2
(S'U2'
p2227
I0
I1
tp2228
Rp2229
(I3
S'<'
p2230
NNNI8
I4
I8
tp2231
bS',g\x00\x00\x08g\x00\x00'
p2232
tp2233
Rp2234
I01
sg1
(g2
(S'U2'
p2235
I0
I1
tp2236
Rp2237
(I3
S'<'
p2238
NNNI8
I4
I8
tp2239
bS'\xf6e\x00\x00\xf4\x95\x00\x00'
p2240
tp2241
Rp2242
I01
sg1
(g2
(S'U2'
p2243
I0
I1
tp2244
Rp2245
(I3
S'<'
p2246
NNNI8
I4
I8
tp2247
bS'\x96\x99\x00\x00\xd8N\x00\x00'
p2248
tp2249
Rp2250
I01
sg1
(g2
(S'U2'
p2251
I0
I1
tp2252
Rp2253
(I3
S'<'
p2254
NNNI8
I4
I8
tp2255
bS'pe\x00\x00\xcf\x91\x00\x00'
p2256
tp2257
Rp2258
I01
sg1
(g2
(S'U2'
p2259
I0
I1
tp2260
Rp2261
(I3
S'<'
p2262
NNNI8
I4
I8
tp2263
bS'\xbdb\x00\x00VY\x00\x00'
p2264
tp2265
Rp2266
I01
sg1
(g2
(S'U2'
p2267
I0
I1
tp2268
Rp2269
(I3
S'<'
p2270
NNNI8
I4
I8
tp2271
bS'\x13N\x00\x00\xdcg\x00\x00'
p2272
tp2273
Rp2274
I01
sg1
(g2
(S'U1'
p2275
I0
I1
tp2276
Rp2277
(I3
S'<'
p2278
NNNI4
I4
I8
tp2279
bS'\xb0e\x00\x00'
p2280
tp2281
Rp2282
I01
sg1
(g2
(S'U2'
p2283
I0
I1
tp2284
Rp2285
(I3
S'<'
p2286
NNNI8
I4
I8
tp2287
bS'\x82S\x00\x00\xb6[\x00\x00'
p2288
tp2289
Rp2290
I01
sg1
(g2
(S'U1'
p2291
I0
I1
tp2292
Rp2293
(I3
S'<'
p2294
NNNI4
I4
I8
tp2295
bS'\xb2N\x00\x00'
p2296
tp2297
Rp2298
I01
sg1
(g2
(S'U2'
p2299
I0
I1
tp2300
Rp2301
(I3
S'<'
p2302
NNNI8
I4
I8
tp2303
bS'MR\x00\x00eg\x00\x00'
p2304
tp2305
Rp2306
I01
sg1
(g2
(S'U1'
p2307
I0
I1
tp2308
Rp2309
(I3
S'<'
p2310
NNNI4
I4
I8
tp2311
bS'CQ\x00\x00'
p2312
tp2313
Rp2314
I01
sg1
(g2
(S'U2'
p2315
I0
I1
tp2316
Rp2317
(I3
S'<'
p2318
NNNI8
I4
I8
tp2319
bS'\x98b\x00\x00\x0eT\x00\x00'
p2320
tp2321
Rp2322
I01
sg1
(g2
(S'U4'
p2323
I0
I1
tp2324
Rp2325
(I3
S'<'
p2326
NNNI16
I4
I8
tp2327
bS'\xa2[\x00\x007b\x00\x00\xcf~\x00\x00\x06t\x00\x00'
p2328
tp2329
Rp2330
I01
sg1
(g2
(S'U2'
p2331
I0
I1
tp2332
Rp2333
(I3
S'<'
p2334
NNNI8
I4
I8
tp2335
bS'"\x8c\x00\x00"\x8c\x00\x00'
p2336
tp2337
Rp2338
I01
sg1
(g2
(S'U2'
p2339
I0
I1
tp2340
Rp2341
(I3
S'<'
p2342
NNNI8
I4
I8
tp2343
bS'qj\x00\x00\xdcg\x00\x00'
p2344
tp2345
Rp2346
I01
sg1
(g2
(S'U2'
p2347
I0
I1
tp2348
Rp2349
(I3
S'<'
p2350
NNNI8
I4
I8
tp2351
bS'\xe6\x8b\x00\x00\xe2\x8b\x00\x00'
p2352
tp2353
Rp2354
I01
sg1
(g2
(S'U3'
p2355
I0
I1
tp2356
Rp2357
(I3
S'<'
p2358
NNNI12
I4
I8
tp2359
bS"'Y\x00\x00<y\x00\x00\x05S\x00\x00"
p2360
tp2361
Rp2362
I01
sg1
(g2
(S'U3'
p2363
I0
I1
tp2364
Rp2365
(I3
S'<'
p2366
NNNI12
I4
I8
tp2367
bS"'Y\x00\x00R\x91\x00\x00\x97^\x00\x00"
p2368
tp2369
Rp2370
I01
sg1
(g2
(S'U2'
p2371
I0
I1
tp2372
Rp2373
(I3
S'<'
p2374
NNNI8
I4
I8
tp2375
bS'\xb6[\x00\x00E\\\x00\x00'
p2376
tp2377
Rp2378
I01
sg1
(g2
(S'U4'
p2379
I0
I1
tp2380
Rp2381
(I3
S'<'
p2382
NNNI16
I4
I8
tp2383
bS'\x82\x82\x00\x00\xe5e\x00\x00\xeb_\x00\x00PN\x00\x00'
p2384
tp2385
Rp2386
I01
sg1
(g2
(S'U2'
p2387
I0
I1
tp2388
Rp2389
(I3
S'<'
p2390
NNNI8
I4
I8
tp2391
bS'hQ\x00\x00\xceW\x00\x00'
p2392
tp2393
Rp2394
I01
sg1
(g2
(S'U1'
p2395
I0
I1
tp2396
Rp2397
(I3
S'<'
p2398
NNNI4
I4
I8
tp2399
bS'\xf4\x8b\x00\x00'
p2400
tp2401
Rp2402
I01
sg1
(g2
(S'U2'
p2403
I0
I1
tp2404
Rp2405
(I3
S'<'
p2406
NNNI8
I4
I8
tp2407
bS'0R\x00\x00eg\x00\x00'
p2408
tp2409
Rp2410
I01
sg1
(g2
(S'U1'
p2411
I0
I1
tp2412
Rp2413
(I3
S'<'
p2414
NNNI4
I4
I8
tp2415
bS'\x81\\\x00\x00'
p2416
tp2417
Rp2418
I01
sg1
(g2
(S'U2'
p2419
I0
I1
tp2420
Rp2421
(I3
S'<'
p2422
NNNI8
I4
I8
tp2423
bS'~\x98\x00\x00\xee\x95\x00\x00'
p2424
tp2425
Rp2426
I01
sg1
(g2
(S'U2'
p2427
I0
I1
tp2428
Rp2429
(I3
S'<'
p2430
NNNI8
I4
I8
tp2431
bS'Kb\x00\x00:g\x00\x00'
p2432
tp2433
Rp2434
I01
sg1
(g2
(S'U2'
p2435
I0
I1
tp2436
Rp2437
(I3
S'<'
p2438
NNNI8
I4
I8
tp2439
bS's^\x00\x00\xb9e\x00\x00'
p2440
tp2441
Rp2442
I01
sg1
(g2
(S'U1'
p2443
I0
I1
tp2444
Rp2445
(I3
S'<'
p2446
NNNI4
I4
I8
tp2447
bS'\xa9s\x00\x00'
p2448
tp2449
Rp2450
I01
sg1
(g2
(S'U1'
p2451
I0
I1
tp2452
Rp2453
(I3
S'<'
p2454
NNNI4
I4
I8
tp2455
bS'\xabN\x00\x00'
p2456
tp2457
Rp2458
I01
sg1
(g2
(S'U2'
p2459
I0
I1
tp2460
Rp2461
(I3
S'<'
p2462
NNNI8
I4
I8
tp2463
bS'\xb0e\x00\x00>k\x00\x00'
p2464
tp2465
Rp2466
I01
sg1
(g2
(S'U2'
p2467
I0
I1
tp2468
Rp2469
(I3
S'<'
p2470
NNNI8
I4
I8
tp2471
bS'\ta\x00\x00\xeb_\x00\x00'
p2472
tp2473
Rp2474
I01
sg1
(g2
(S'U2'
p2475
I0
I1
tp2476
Rp2477
(I3
S'<'
p2478
NNNI8
I4
I8
tp2479
bS'<y\x00\x00\x05S\x00\x00'
p2480
tp2481
Rp2482
I01
sg1
(g2
(S'U1'
p2483
I0
I1
tp2484
Rp2485
(I3
S'<'
p2486
NNNI4
I4
I8
tp2487
bS'8R\x00\x00'
p2488
tp2489
Rp2490
I01
sg1
(g2
(S'U2'
p2491
I0
I1
tp2492
Rp2493
(I3
S'<'
p2494
NNNI8
I4
I8
tp2495
bS'5u\x00\x00\x11\x81\x00\x00'
p2496
tp2497
Rp2498
I01
sg1
(g2
(S'U2'
p2499
I0
I1
tp2500
Rp2501
(I3
S'<'
p2502
NNNI8
I4
I8
tp2503
bS'HQ\x00\x00\x97_\x00\x00'
p2504
tp2505
Rp2506
I01
sg1
(g2
(S'U1'
p2507
I0
I1
tp2508
Rp2509
(I3
S'<'
p2510
NNNI4
I4
I8
tp2511
bS'P\x96\x00\x00'
p2512
tp2513
Rp2514
I01
sg1
(g2
(S'U2'
p2515
I0
I1
tp2516
Rp2517
(I3
S'<'
p2518
NNNI8
I4
I8
tp2519
bS'WY\x00\x00\x10\x99\x00\x00'
p2520
tp2521
Rp2522
I01
sg1
(g2
(S'U2'
p2523
I0
I1
tp2524
Rp2525
(I3
S'<'
p2526
NNNI8
I4
I8
tp2527
bS'\x9eR\x00\x00\x06t\x00\x00'
p2528
tp2529
Rp2530
I01
sg1
(g2
(S'U2'
p2531
I0
I1
tp2532
Rp2533
(I3
S'<'
p2534
NNNI8
I4
I8
tp2535
bS'?e\x00\x00\x9c^\x00\x00'
p2536
tp2537
Rp2538
I01
sg1
(g2
(S'U2'
p2539
I0
I1
tp2540
Rp2541
(I3
S'<'
p2542
NNNI8
I4
I8
tp2543
bS'\x11b\x00\x00\x97^\x00\x00'
p2544
tp2545
Rp2546
I01
sg1
(g2
(S'U2'
p2547
I0
I1
tp2548
Rp2549
(I3
S'<'
p2550
NNNI8
I4
I8
tp2551
bS'\x8a\x7f\x00\x00t^\x00\x00'
p2552
tp2553
Rp2554
I01
sg1
(g2
(S'U2'
p2555
I0
I1
tp2556
Rp2557
(I3
S'<'
p2558
NNNI8
I4
I8
tp2559
bS'vY\x00\x00\x89|\x00\x00'
p2560
tp2561
Rp2562
I01
sg1
(g2
(S'U3'
p2563
I0
I1
tp2564
Rp2565
(I3
S'<'
p2566
NNNI12
I4
I8
tp2567
bS'T\x80\x00\x00\xfb|\x00\x00\xbaN\x00\x00'
p2568
tp2569
Rp2570
I01
sg1
(g2
(S'U1'
p2571
I0
I1
tp2572
Rp2573
(I3
S'<'
p2574
NNNI4
I4
I8
tp2575
bS'pN\x00\x00'
p2576
tp2577
Rp2578
I01
sg1
(g2
(S'U4'
p2579
I0
I1
tp2580
Rp2581
(I3
S'<'
p2582
NNNI16
I4
I8
tp2583
bS':g\x00\x00\x1aO\x00\x00\xbe\x96\x00\x00\x97_\x00\x00'
p2584
tp2585
Rp2586
I01
sg1
(g2
(S'U2'
p2587
I0
I1
tp2588
Rp2589
(I3
S'<'
p2590
NNNI8
I4
I8
tp2591
bS'\xd1S\x00\x00\xb0s\x00\x00'
p2592
tp2593
Rp2594
I01
sg1
(g2
(S'U2'
p2595
I0
I1
tp2596
Rp2597
(I3
S'<'
p2598
NNNI8
I4
I8
tp2599
bS'\xa8`\x00\x00}Y\x00\x00'
p2600
tp2601
Rp2602
I01
sg1
(g2
(S'U2'
p2603
I0
I1
tp2604
Rp2605
(I3
S'<'
p2606
NNNI8
I4
I8
tp2607
bS'\xcbz\x00\x00\xcfQ\x00\x00'
p2608
tp2609
Rp2610
I01
sg1
(g2
(S'U2'
p2611
I0
I1
tp2612
Rp2613
(I3
S'<'
p2614
NNNI8
I4
I8
tp2615
bS'\xdeV\x00\x00\x88\x99\x00\x00'
p2616
tp2617
Rp2618
I01
sg1
(g2
(S'U2'
p2619
I0
I1
tp2620
Rp2621
(I3
S'<'
p2622
NNNI8
I4
I8
tp2623
bS'FU\x00\x00\xc1T\x00\x00'
p2624
tp2625
Rp2626
I01
sg1
(g2
(S'U2'
p2627
I0
I1
tp2628
Rp2629
(I3
S'<'
p2630
NNNI8
I4
I8
tp2631
bS'(g\x00\x00\xe8\x95\x00\x00'
p2632
tp2633
Rp2634
I01
sg1
(g2
(S'U2'
p2635
I0
I1
tp2636
Rp2637
(I3
S'<'
p2638
NNNI8
I4
I8
tp2639
bS'\x1aO\x00\x00XT\x00\x00'
p2640
tp2641
Rp2642
I01
sg1
(g2
(S'U2'
p2643
I0
I1
tp2644
Rp2645
(I3
S'<'
p2646
NNNI8
I4
I8
tp2647
bS'Ym\x00\x00_l\x00\x00'
p2648
tp2649
Rp2650
I01
sg1
(g2
(S'U1'
p2651
I0
I1
tp2652
Rp2653
(I3
S'<'
p2654
NNNI4
I4
I8
tp2655
bS'\x98b\x00\x00'
p2656
tp2657
Rp2658
I01
sg1
(g2
(S'U1'
p2659
I0
I1
tp2660
Rp2661
(I3
S'<'
p2662
NNNI4
I4
I8
tp2663
bS'\x9c\x94\x00\x00'
p2664
tp2665
Rp2666
I01
sg1
(g2
(S'U2'
p2667
I0
I1
tp2668
Rp2669
(I3
S'<'
p2670
NNNI8
I4
I8
tp2671
bS'*b\x00\x00bk\x00\x00'
p2672
tp2673
Rp2674
I01
sg1
(g2
(S'U2'
p2675
I0
I1
tp2676
Rp2677
(I3
S'<'
p2678
NNNI8
I4
I8
tp2679
bS'\xa5b\x00\x00\rT\x00\x00'
p2680
tp2681
Rp2682
I01
sg1
(g2
(S'U2'
p2683
I0
I1
tp2684
Rp2685
(I3
S'<'
p2686
NNNI8
I4
I8
tp2687
bS'\xf7N\x00\x00<h\x00\x00'
p2688
tp2689
Rp2690
I01
sg1
(g2
(S'U2'
p2691
I0
I1
tp2692
Rp2693
(I3
S'<'
p2694
NNNI8
I4
I8
tp2695
bS'\xcf~\x00\x00\x06t\x00\x00'
p2696
tp2697
Rp2698
I01
sg1
(g2
(S'U1'
p2699
I0
I1
tp2700
Rp2701
(I3
S'<'
p2702
NNNI4
I4
I8
tp2703
bS'-\x8d\x00\x00'
p2704
tp2705
Rp2706
I01
sg1
(g2
(S'U3'
p2707
I0
I1
tp2708
Rp2709
(I3
S'<'
p2710
NNNI12
I4
I8
tp2711
bS'V\x00\x00\x00I\x00\x00\x00P\x00\x00\x00'
p2712
tp2713
Rp2714
I01
sg1
(g2
(S'U2'
p2715
I0
I1
tp2716
Rp2717
(I3
S'<'
p2718
NNNI8
I4
I8
tp2719
bS'\xd5l\x00\x00\x8b_\x00\x00'
p2720
tp2721
Rp2722
I01
sg1
(g2
(S'U2'
p2723
I0
I1
tp2724
Rp2725
(I3
S'<'
p2726
NNNI8
I4
I8
tp2727
bS'\x00_\x00\x00\xbe\x8b\x00\x00'
p2728
tp2729
Rp2730
I01
sg1
(g2
(S'U2'
p2731
I0
I1
tp2732
Rp2733
(I3
S'<'
p2734
NNNI8
I4
I8
tp2735
bS'lQ\x00\x00\xf8S\x00\x00'
p2736
tp2737
Rp2738
I01
sg1
(g2
(S'U2'
p2739
I0
I1
tp2740
Rp2741
(I3
S'<'
p2742
NNNI8
I4
I8
tp2743
bS'\xb0s\x00\x00\xd1\x91\x00\x00'
p2744
tp2745
Rp2746
I01
sg1
(g2
(S'U2'
p2747
I0
I1
tp2748
Rp2749
(I3
S'<'
p2750
NNNI8
I4
I8
tp2751
bS'ck\x00\x00\xf7N\x00\x00'
p2752
tp2753
Rp2754
I01
sg1
(g2
(S'U2'
p2755
I0
I1
tp2756
Rp2757
(I3
S'<'
p2758
NNNI8
I4
I8
tp2759
bS'/e\x00\x00\x01c\x00\x00'
p2760
tp2761
Rp2762
I01
sg1
(g2
(S'U2'
p2763
I0
I1
tp2764
Rp2765
(I3
S'<'
p2766
NNNI8
I4
I8
tp2767
bS'yr\x00\x00\xf7N\x00\x00'
p2768
tp2769
Rp2770
I01
sg1
(g2
(S'U2'
p2771
I0
I1
tp2772
Rp2773
(I3
S'<'
p2774
NNNI8
I4
I8
tp2775
bS'\xf8v\x00\x00\x01\x90\x00\x00'
p2776
tp2777
Rp2778
I01
sg1
(g2
(S'U2'
p2779
I0
I1
tp2780
Rp2781
(I3
S'<'
p2782
NNNI8
I4
I8
tp2783
bS'\x9cU\x00\x00"k\x00\x00'
p2784
tp2785
Rp2786
I01
sg1
(g2
(S'U2'
p2787
I0
I1
tp2788
Rp2789
(I3
S'<'
p2790
NNNI8
I4
I8
tp2791
bS'\xe6\x8b\x00\x00\xc5`\x00\x00'
p2792
tp2793
Rp2794
I01
sg1
(g2
(S'U2'
p2795
I0
I1
tp2796
Rp2797
(I3
S'<'
p2798
NNNI8
I4
I8
tp2799
bS'l\x91\x00\x00\xbe[\x00\x00'
p2800
tp2801
Rp2802
I01
sg1
(g2
(S'U2'
p2803
I0
I1
tp2804
Rp2805
(I3
S'<'
p2806
NNNI8
I4
I8
tp2807
bS'\x00_\x00\x00\xfe\x8b\x00\x00'
p2808
tp2809
Rp2810
I01
sg1
(g2
(S'U2'
p2811
I0
I1
tp2812
Rp2813
(I3
S'<'
p2814
NNNI8
I4
I8
tp2815
bS"'Y\x00\x00\tT\x00\x00"
p2816
tp2817
Rp2818
I01
sg1
(g2
(S'U2'
p2819
I0
I1
tp2820
Rp2821
(I3
S'<'
p2822
NNNI8
I4
I8
tp2823
bS'>e\x00\x00>k\x00\x00'
p2824
tp2825
Rp2826
I01
sg1
(g2
(S'U3'
p2827
I0
I1
tp2828
Rp2829
(I3
S'<'
p2830
NNNI12
I4
I8
tp2831
bS'%f\x00\x00c[\x00\x00\xeds\x00\x00'
p2832
tp2833
Rp2834
I01
sg1
(g2
(S'U3'
p2835
I0
I1
tp2836
Rp2837
(I3
S'<'
p2838
NNNI12
I4
I8
tp2839
bS'\x16S\x00\x00\x86Y\x00\x00\xc1T\x00\x00'
p2840
tp2841
Rp2842
I01
sg1
(g2
(S'U2'
p2843
I0
I1
tp2844
Rp2845
(I3
S'<'
p2846
NNNI8
I4
I8
tp2847
bS'sY\x00\x00\x8bs\x00\x00'
p2848
tp2849
Rp2850
I01
sg1
(g2
(S'U2'
p2851
I0
I1
tp2852
Rp2853
(I3
S'<'
p2854
NNNI8
I4
I8
tp2855
bS'S_\x00\x00)Y\x00\x00'
p2856
tp2857
Rp2858
I01
sg1
(g2
(S'U2'
p2859
I0
I1
tp2860
Rp2861
(I3
S'<'
p2862
NNNI8
I4
I8
tp2863
bS'\x84\x98\x00\x00\x9a[\x00\x00'
p2864
tp2865
Rp2866
I01
sg1
(g2
(S'U2'
p2867
I0
I1
tp2868
Rp2869
(I3
S'<'
p2870
NNNI8
I4
I8
tp2871
bS'eg\x00\x004N\x00\x00'
p2872
tp2873
Rp2874
I01
sg1
(g2
(S'U2'
p2875
I0
I1
tp2876
Rp2877
(I3
S'<'
p2878
NNNI8
I4
I8
tp2879
bS'\xc1T\x00\x00(\x8d\x00\x00'
p2880
tp2881
Rp2882
I01
sg1
(g2
(S'U2'
p2883
I0
I1
tp2884
Rp2885
(I3
S'<'
p2886
NNNI8
I4
I8
tp2887
bS'\xe2V\x00\x00-\x8d\x00\x00'
p2888
tp2889
Rp2890
I01
sg1
(g2
(S'U2'
p2891
I0
I1
tp2892
Rp2893
(I3
S'<'
p2894
NNNI8
I4
I8
tp2895
bS'-\x8d\x00\x00pN\x00\x00'
p2896
tp2897
Rp2898
I01
sg1
(g2
(S'U2'
p2899
I0
I1
tp2900
Rp2901
(I3
S'<'
p2902
NNNI8
I4
I8
tp2903
bS'\xbe|\x00\x00\x8e\x7f\x00\x00'
p2904
tp2905
Rp2906
I01
sg1
(g2
(S'U3'
p2907
I0
I1
tp2908
Rp2909
(I3
S'<'
p2910
NNNI12
I4
I8
tp2911
bS'\x85\x8f\x00\x00\xfc[\x00\x00\xeds\x00\x00'
p2912
tp2913
Rp2914
I01
sg1
(g2
(S'U3'
p2915
I0
I1
tp2916
Rp2917
(I3
S'<'
p2918
NNNI12
I4
I8
tp2919
bS'N\x00\x00\x00B\x00\x00\x00A\x00\x00\x00'
p2920
tp2921
Rp2922
I01
sg1
(g2
(S'U2'
p2923
I0
I1
tp2924
Rp2925
(I3
S'<'
p2926
NNNI8
I4
I8
tp2927
bS'\xfa^\x00\x00Pg\x00\x00'
p2928
tp2929
Rp2930
I01
sg1
(g2
(S'U2'
p2931
I0
I1
tp2932
Rp2933
(I3
S'<'
p2934
NNNI8
I4
I8
tp2935
bS'P\x96\x00\x00\xcf\x91\x00\x00'
p2936
tp2937
Rp2938
I01
sg1
(g2
(S'U2'
p2939
I0
I1
tp2940
Rp2941
(I3
S'<'
p2942
NNNI8
I4
I8
tp2943
bS'\xc6\x89\x00\x00\x91\x98\x00\x00'
p2944
tp2945
Rp2946
I01
sg1
(g2
(S'U1'
p2947
I0
I1
tp2948
Rp2949
(I3
S'<'
p2950
NNNI4
I4
I8
tp2951
bS'\xcfQ\x00\x00'
p2952
tp2953
Rp2954
I01
sg1
(g2
(S'U3'
p2955
I0
I1
tp2956
Rp2957
(I3
S'<'
p2958
NNNI12
I4
I8
tp2959
bS'\x1fa\x00\x00"\x8c\x00\x00\xa8`\x00\x00'
p2960
tp2961
Rp2962
I01
sg1
(g2
(S'U2'
p2963
I0
I1
tp2964
Rp2965
(I3
S'<'
p2966
NNNI8
I4
I8
tp2967
bS'%f\x00\x00>k\x00\x00'
p2968
tp2969
Rp2970
I01
sg1
(g2
(S'U2'
p2971
I0
I1
tp2972
Rp2973
(I3
S'<'
p2974
NNNI8
I4
I8
tp2975
bS';m\x00\x00\xa8R\x00\x00'
p2976
tp2977
Rp2978
I01
sg1
(g2
(S'U2'
p2979
I0
I1
tp2980
Rp2981
(I3
S'<'
p2982
NNNI8
I4
I8
tp2983
bS'`O\x00\x00}Y\x00\x00'
p2984
tp2985
Rp2986
I01
sg1
(g2
(S'U4'
p2987
I0
I1
tp2988
Rp2989
(I3
S'<'
p2990
NNNI16
I4
I8
tp2991
bS'\xa8T\x00\x00\xe2\x8b\x00\x005u\x00\x00\xdd\x8b\x00\x00'
p2992
tp2993
Rp2994
I01
sg1
(g2
(S'U2'
p2995
I0
I1
tp2996
Rp2997
(I3
S'<'
p2998
NNNI8
I4
I8
tp2999
bS'\x1fg\x00\x00\xf4\x95\x00\x00'
p3000
tp3001
Rp3002
I01
sg1
(g2
(S'U2'
p3003
I0
I1
tp3004
Rp3005
(I3
S'<'
p3006
NNNI8
I4
I8
tp3007
bS'\xdd\x8b\x00\x009\x8d\x00\x00'
p3008
tp3009
Rp3010
I01
sg1
(g2
(S'U7'
p3011
I0
I1
tp3012
Rp3013
(I3
S'<'
p3014
NNNI28
I4
I8
tp3015
bS'x\x00\x00\x00x\x00\x00\x00x\x00\x00\x00x\x00\x00\x00x\x00\x00\x00x\x00\x00\x00x\x00\x00\x00'
p3016
tp3017
Rp3018
I01
sg1
(g2
(S'U1'
p3019
I0
I1
tp3020
Rp3021
(I3
S'<'
p3022
NNNI4
I4
I8
tp3023
bS'pO\x00\x00'
p3024
tp3025
Rp3026
I01
sg1
(g2
(S'U2'
p3027
I0
I1
tp3028
Rp3029
(I3
S'<'
p3030
NNNI8
I4
I8
tp3031
bS'\xb2N\x00\x00\xecN\x00\x00'
p3032
tp3033
Rp3034
I01
sg1
(g2
(S'U1'
p3035
I0
I1
tp3036
Rp3037
(I3
S'<'
p3038
NNNI4
I4
I8
tp3039
bS'\x86^\x00\x00'
p3040
tp3041
Rp3042
I01
sg1
(g2
(S'U1'
p3043
I0
I1
tp3044
Rp3045
(I3
S'<'
p3046
NNNI4
I4
I8
tp3047
bS'\x98S\x00\x00'
p3048
tp3049
Rp3050
I01
sg1
(g2
(S'U2'
p3051
I0
I1
tp3052
Rp3053
(I3
S'<'
p3054
NNNI8
I4
I8
tp3055
bS'NO\x00\x00\xf3\x81\x00\x00'
p3056
tp3057
Rp3058
I01
sg1
(g2
(S'U1'
p3059
I0
I1
tp3060
Rp3061
(I3
S'<'
p3062
NNNI4
I4
I8
tp3063
bS'\x00\x97\x00\x00'
p3064
tp3065
Rp3066
I01
sg1
(g2
(S'U2'
p3067
I0
I1
tp3068
Rp3069
(I3
S'<'
p3070
NNNI8
I4
I8
tp3071
bS'\tN\x00\x00|i\x00\x00'
p3072
tp3073
Rp3074
I01
sg1
(g2
(S'U2'
p3075
I0
I1
tp3076
Rp3077
(I3
S'<'
p3078
NNNI8
I4
I8
tp3079
bS'\x18O\x00\x00\xe0`\x00\x00'
p3080
tp3081
Rp3082
I01
sg1
(g2
(S'U2'
p3083
I0
I1
tp3084
Rp3085
(I3
S'<'
p3086
NNNI8
I4
I8
tp3087
bS'{Q\x00\x00\x1fu\x00\x00'
p3088
tp3089
Rp3090
I01
sg1
(g2
(S'U2'
p3091
I0
I1
tp3092
Rp3093
(I3
S'<'
p3094
NNNI8
I4
I8
tp3095
bS'\tN\x00\x00kQ\x00\x00'
p3096
tp3097
Rp3098
I01
sg1
(g2
(S'U1'
p3099
I0
I1
tp3100
Rp3101
(I3
S'<'
p3102
NNNI4
I4
I8
tp3103
bS'7\x8d\x00\x00'
p3104
tp3105
Rp3106
I01
sg1
(g2
(S'U2'
p3107
I0
I1
tp3108
Rp3109
(I3
S'<'
p3110
NNNI8
I4
I8
tp3111
bS'\x9e[\x00\x00\xe0`\x00\x00'
p3112
tp3113
Rp3114
I01
sg1
(g2
(S'U2'
p3115
I0
I1
tp3116
Rp3117
(I3
S'<'
p3118
NNNI8
I4
I8
tp3119
bS'\x98b\x00\x00\nN\x00\x00'
p3120
tp3121
Rp3122
I01
sg1
(g2
(S'U2'
p3123
I0
I1
tp3124
Rp3125
(I3
S'<'
p3126
NNNI8
I4
I8
tp3127
bS'Sb\x00\x00pb\x00\x00'
p3128
tp3129
Rp3130
I01
sg1
(g2
(S'U4'
p3131
I0
I1
tp3132
Rp3133
(I3
S'<'
p3134
NNNI16
I4
I8
tp3135
bS'\x1fu\x00\x00\x0fa\x00\x00tQ\x00\x00\x86\x96\x00\x00'
p3136
tp3137
Rp3138
I01
sg1
(g2
(S'U2'
p3139
I0
I1
tp3140
Rp3141
(I3
S'<'
p3142
NNNI8
I4
I8
tp3143
bS'Kb\x00\x00\xed~\x00\x00'
p3144
tp3145
Rp3146
I01
sg1
(g2
(S'U2'
p3147
I0
I1
tp3148
Rp3149
(I3
S'<'
p3150
NNNI8
I4
I8
tp3151
bS'\xbd[\x00\x00&^\x00\x00'
p3152
tp3153
Rp3154
I01
sg1
(g2
(S'U2'
p3155
I0
I1
tp3156
Rp3157
(I3
S'<'
p3158
NNNI8
I4
I8
tp3159
bS'\x84\x98\x00\x00X[\x00\x00'
p3160
tp3161
Rp3162
I01
sg1
(g2
(S'U2'
p3163
I0
I1
tp3164
Rp3165
(I3
S'<'
p3166
NNNI8
I4
I8
tp3167
bS'\xedQ\x00\x00dk\x00\x00'
p3168
tp3169
Rp3170
I01
sg1
(g2
(S'U2'
p3171
I0
I1
tp3172
Rp3173
(I3
S'<'
p3174
NNNI8
I4
I8
tp3175
bS's^\x00\x00s|\x00\x00'
p3176
tp3177
Rp3178
I01
sg1
(g2
(S'U2'
p3179
I0
I1
tp3180
Rp3181
(I3
S'<'
p3182
NNNI8
I4
I8
tp3183
bS'WS\x00\x00\xacN\x00\x00'
p3184
tp3185
Rp3186
I01
sg1
(g2
(S'U2'
p3187
I0
I1
tp3188
Rp3189
(I3
S'<'
p3190
NNNI8
I4
I8
tp3191
bS'5u\x00\x00\xafh\x00\x00'
p3192
tp3193
Rp3194
I01
sg1
(g2
(S'U1'
p3195
I0
I1
tp3196
Rp3197
(I3
S'<'
p3198
NNNI4
I4
I8
tp3199
bS'yr\x00\x00'
p3200
tp3201
Rp3202
I01
s.